///////////////////////////////////////////////////////////////////////////////
//                                                                            /
// IAR C/C++ Compiler V8.10.1.10194/W32 for 8051        01/Dec/2018  10:54:54 /
// Copyright 2004-2011 IAR Systems AB.                                        /
//                                                                            /
//    Core               =  plain                                             /
//    Code model         =  banked                                            /
//    Data model         =  large                                             /
//    Calling convention =  xdata reentrant                                   /
//    Constant location  =  data_rom                                          /
//    Dptr setup         =  1,16                                              /
//    Source file        =  D:\Junior College\Zigbee development technology   /
//                          and Practice\Zstack系统移植\ZStack-CC2530-2.5.1a\ /
//                          Projects\zstack\Samples\GenericApp\Source\DongheA /
//                          ppRouter.c                                        /
//    Command line       =  -f "D:\Junior College\Zigbee development          /
//                          technology and Practice\Zstack系统移植\ZStack-CC2 /
//                          530-2.5.1a\Projects\zstack\Samples\GenericApp\CC2 /
//                          530DB\..\..\..\Tools\CC2530DB\f8wCoord.cfg"       /
//                          (-DCPU32MHZ -DROOT=__near_func                    /
//                          -DMAC_CFG_APP_PENDING_QUEUE=TRUE                  /
//                          -DMAC_CFG_TX_DATA_MAX=5 -DMAC_CFG_TX_MAX=8        /
//                          -DMAC_CFG_RX_MAX=5 -DZDO_COORDINATOR -DRTR_NWK)   /
//                          -f "D:\Junior College\Zigbee development          /
//                          technology and Practice\Zstack系统移植\ZStack-CC2 /
//                          530-2.5.1a\Projects\zstack\Samples\GenericApp\CC2 /
//                          530DB\..\..\..\Tools\CC2530DB\f8wConfig.cfg"      /
//                          (-DZIGBEEPRO -DSECURE=0 -DZG_SECURE_DYNAMIC=0     /
//                          -DREFLECTOR -DDEFAULT_CHANLIST=0x00000800         /
//                          -DZDAPP_CONFIG_PAN_ID=0xFFFF                      /
//                          -DNWK_START_DELAY=100 -DEXTENDED_JOINING_RANDOM_M /
//                          ASK=0x007F -DBEACON_REQUEST_DELAY=100             /
//                          -DBEACON_REQ_DELAY_MASK=0x00FF                    /
//                          -DLINK_STATUS_JITTER_MASK=0x007F                  /
//                          -DROUTE_EXPIRY_TIME=30 -DAPSC_ACK_WAIT_DURATION_P /
//                          OLLED=3000 -DNWK_INDIRECT_MSG_TIMEOUT=7           /
//                          -DMAX_RREQ_ENTRIES=8 -DAPSC_MAX_FRAME_RETRIES=3   /
//                          -DNWK_MAX_DATA_RETRIES=2                          /
//                          -DMAX_POLL_FAILURE_RETRIES=2 -DMAX_BCAST=9        /
//                          -DAPS_MAX_GROUPS=16 -DMAX_RTG_ENTRIES=40          /
//                          -DNWK_MAX_BINDING_ENTRIES=4                       /
//                          -DMAX_BINDING_CLUSTER_IDS=4                       /
//                          "-DDEFAULT_KEY={0x01, 0x03, 0x05, 0x07, 0x09,     /
//                          0x0B, 0x0D, 0x0F, 0x00, 0x02, 0x04, 0x06, 0x08,   /
//                          0x0A, 0x0C, 0x0D}" -DMAC_MAX_FRAME_SIZE=116       /
//                          -DZDNWKMGR_MIN_TRANSMISSIONS=20 "-DCONST=const    /
//                          __code" -DGENERIC=__generic                       /
//                          -DRFD_RCVC_ALWAYS_ON=FALSE -DPOLL_RATE=1000       /
//                          -DQUEUED_POLL_RATE=100 -DRESPONSE_POLL_RATE=100)  /
//                          -DREJOIN_POLL_RATE=440 "D:\Junior College\Zigbee  /
//                          development technology and                        /
//                          Practice\Zstack系统移植\ZStack-CC2530-2.5.1a\Proj /
//                          ects\zstack\Samples\GenericApp\Source\DongheAppRo /
//                          uter.c" -D ZTOOL_P1 -D xMT_TASK -D xMT_SYS_FUNC   /
//                          -D xMT_ZDO_FUNC -D xLCD_SUPPORTED=DEBUG -lC       /
//                          "D:\Junior College\Zigbee development technology  /
//                          and Practice\Zstack系统移植\ZStack-CC2530-2.5.1a\ /
//                          Projects\zstack\Samples\GenericApp\CC2530DB\Coord /
//                          inatorEB\List\" -lA "D:\Junior College\Zigbee     /
//                          development technology and                        /
//                          Practice\Zstack系统移植\ZStack-CC2530-2.5.1a\Proj /
//                          ects\zstack\Samples\GenericApp\CC2530DB\Coordinat /
//                          orEB\List\" --diag_suppress Pe001,Pa010 -o        /
//                          "D:\Junior College\Zigbee development technology  /
//                          and Practice\Zstack系统移植\ZStack-CC2530-2.5.1a\ /
//                          Projects\zstack\Samples\GenericApp\CC2530DB\Coord /
//                          inatorEB\Obj\" -e --no_code_motion --debug        /
//                          --core=plain --dptr=16,1 --data_model=large       /
//                          --code_model=banked --calling_convention=xdata_re /
//                          entrant --place_constants=data_rom                /
//                          --nr_virtual_regs 16 -I "D:\Junior                /
//                          College\Zigbee development technology and         /
//                          Practice\Zstack系统移植\ZStack-CC2530-2.5.1a\Proj /
//                          ects\zstack\Samples\GenericApp\CC2530DB\" -I      /
//                          "D:\Junior College\Zigbee development technology  /
//                          and Practice\Zstack系统移植\ZStack-CC2530-2.5.1a\ /
//                          Projects\zstack\Samples\GenericApp\CC2530DB\..\So /
//                          urce\" -I "D:\Junior College\Zigbee development   /
//                          technology and Practice\Zstack系统移植\ZStack-CC2 /
//                          530-2.5.1a\Projects\zstack\Samples\GenericApp\CC2 /
//                          530DB\..\..\..\ZMain\TI2530DB\" -I "D:\Junior     /
//                          College\Zigbee development technology and         /
//                          Practice\Zstack系统移植\ZStack-CC2530-2.5.1a\Proj /
//                          ects\zstack\Samples\GenericApp\CC2530DB\..\..\..\ /
//                          ..\..\Components\hal\include\" -I "D:\Junior      /
//                          College\Zigbee development technology and         /
//                          Practice\Zstack系统移植\ZStack-CC2530-2.5.1a\Proj /
//                          ects\zstack\Samples\GenericApp\CC2530DB\..\..\..\ /
//                          ..\..\Components\hal\target\CC2530EB\" -I         /
//                          "D:\Junior College\Zigbee development technology  /
//                          and Practice\Zstack系统移植\ZStack-CC2530-2.5.1a\ /
//                          Projects\zstack\Samples\GenericApp\CC2530DB\..\.. /
//                          \..\..\..\Components\mac\include\" -I "D:\Junior  /
//                          College\Zigbee development technology and         /
//                          Practice\Zstack系统移植\ZStack-CC2530-2.5.1a\Proj /
//                          ects\zstack\Samples\GenericApp\CC2530DB\..\..\..\ /
//                          ..\..\Components\mac\high_level\" -I "D:\Junior   /
//                          College\Zigbee development technology and         /
//                          Practice\Zstack系统移植\ZStack-CC2530-2.5.1a\Proj /
//                          ects\zstack\Samples\GenericApp\CC2530DB\..\..\..\ /
//                          ..\..\Components\mac\low_level\srf04\" -I         /
//                          "D:\Junior College\Zigbee development technology  /
//                          and Practice\Zstack系统移植\ZStack-CC2530-2.5.1a\ /
//                          Projects\zstack\Samples\GenericApp\CC2530DB\..\.. /
//                          \..\..\..\Components\mac\low_level\srf04\single_c /
//                          hip\" -I "D:\Junior College\Zigbee development    /
//                          technology and Practice\Zstack系统移植\ZStack-CC2 /
//                          530-2.5.1a\Projects\zstack\Samples\GenericApp\CC2 /
//                          530DB\..\..\..\..\..\Components\mt\" -I           /
//                          "D:\Junior College\Zigbee development technology  /
//                          and Practice\Zstack系统移植\ZStack-CC2530-2.5.1a\ /
//                          Projects\zstack\Samples\GenericApp\CC2530DB\..\.. /
//                          \..\..\..\Components\osal\include\" -I            /
//                          "D:\Junior College\Zigbee development technology  /
//                          and Practice\Zstack系统移植\ZStack-CC2530-2.5.1a\ /
//                          Projects\zstack\Samples\GenericApp\CC2530DB\..\.. /
//                          \..\..\..\Components\services\saddr\" -I          /
//                          "D:\Junior College\Zigbee development technology  /
//                          and Practice\Zstack系统移植\ZStack-CC2530-2.5.1a\ /
//                          Projects\zstack\Samples\GenericApp\CC2530DB\..\.. /
//                          \..\..\..\Components\services\sdata\" -I          /
//                          "D:\Junior College\Zigbee development technology  /
//                          and Practice\Zstack系统移植\ZStack-CC2530-2.5.1a\ /
//                          Projects\zstack\Samples\GenericApp\CC2530DB\..\.. /
//                          \..\..\..\Components\stack\af\" -I "D:\Junior     /
//                          College\Zigbee development technology and         /
//                          Practice\Zstack系统移植\ZStack-CC2530-2.5.1a\Proj /
//                          ects\zstack\Samples\GenericApp\CC2530DB\..\..\..\ /
//                          ..\..\Components\stack\nwk\" -I "D:\Junior        /
//                          College\Zigbee development technology and         /
//                          Practice\Zstack系统移植\ZStack-CC2530-2.5.1a\Proj /
//                          ects\zstack\Samples\GenericApp\CC2530DB\..\..\..\ /
//                          ..\..\Components\stack\sapi\" -I "D:\Junior       /
//                          College\Zigbee development technology and         /
//                          Practice\Zstack系统移植\ZStack-CC2530-2.5.1a\Proj /
//                          ects\zstack\Samples\GenericApp\CC2530DB\..\..\..\ /
//                          ..\..\Components\stack\sec\" -I "D:\Junior        /
//                          College\Zigbee development technology and         /
//                          Practice\Zstack系统移植\ZStack-CC2530-2.5.1a\Proj /
//                          ects\zstack\Samples\GenericApp\CC2530DB\..\..\..\ /
//                          ..\..\Components\stack\sys\" -I "D:\Junior        /
//                          College\Zigbee development technology and         /
//                          Practice\Zstack系统移植\ZStack-CC2530-2.5.1a\Proj /
//                          ects\zstack\Samples\GenericApp\CC2530DB\..\..\..\ /
//                          ..\..\Components\stack\zdo\" -I "D:\Junior        /
//                          College\Zigbee development technology and         /
//                          Practice\Zstack系统移植\ZStack-CC2530-2.5.1a\Proj /
//                          ects\zstack\Samples\GenericApp\CC2530DB\..\..\..\ /
//                          ..\..\Components\zmac\" -I "D:\Junior             /
//                          College\Zigbee development technology and         /
//                          Practice\Zstack系统移植\ZStack-CC2530-2.5.1a\Proj /
//                          ects\zstack\Samples\GenericApp\CC2530DB\..\..\..\ /
//                          ..\..\Components\zmac\f8w\" -Ohz                  /
//                          --require_prototypes                              /
//    List file          =  D:\Junior College\Zigbee development technology   /
//                          and Practice\Zstack系统移植\ZStack-CC2530-2.5.1a\ /
//                          Projects\zstack\Samples\GenericApp\CC2530DB\Coord /
//                          inatorEB\List\DongheAppRouter.s51                 /
//                                                                            /
//                                                                            /
///////////////////////////////////////////////////////////////////////////////

        NAME DongheAppRouter

        RTMODEL "__SystemLibrary", "CLib"
        RTMODEL "__calling_convention", "xdata_reentrant"
        RTMODEL "__code_model", "banked"
        RTMODEL "__core", "plain"
        RTMODEL "__data_model", "large"
        RTMODEL "__dptr_size", "16"
        RTMODEL "__extended_stack", "disabled"
        RTMODEL "__location_for_constants", "data"
        RTMODEL "__number_of_dptrs", "1"
        RTMODEL "__rt_version", "1"

        RSEG DOVERLAY:DATA:NOROOT(0)
        RSEG IOVERLAY:IDATA:NOROOT(0)
        RSEG ISTACK:IDATA:NOROOT(0)
        RSEG PSTACK:XDATA:NOROOT(0)
        RSEG XSTACK:XDATA:NOROOT(0)

        EXTERN ?BANKED_ENTER_XDATA
        EXTERN ?BANKED_LEAVE_XDATA
        EXTERN ?BDISPATCH
        EXTERN ?BRET
        EXTERN ?V0
        EXTERN __INIT_XDATA_I
        EXTERN __INIT_XDATA_Z

        PUBLIC ??DhAppRouterManage_HandleKeys?relay
        FUNCTION ??DhAppRouterManage_HandleKeys?relay,0203H
        PUBLIC ??DhAppRouterManage_ProcessMSGData?relay
        FUNCTION ??DhAppRouterManage_ProcessMSGData?relay,0203H
        PUBLIC ??DhAppRouterManage_ProcessZDOStateChange?relay
        FUNCTION ??DhAppRouterManage_ProcessZDOStateChange?relay,0203H
        PUBLIC ??DongheAppRouter_Init?relay
        FUNCTION ??DongheAppRouter_Init?relay,0203H
        PUBLIC ??DongheAppRouter_ProcessEvent?relay
        FUNCTION ??DongheAppRouter_ProcessEvent?relay,0203H
        PUBLIC DhAppRouterManage_HandleKeys
        FUNCTION DhAppRouterManage_HandleKeys,0203H
        ARGFRAME XSTACK, 0, STACK
        PUBLIC DhAppRouterManage_NwkState
        PUBLIC DhAppRouterManage_ProcessMSGData
        FUNCTION DhAppRouterManage_ProcessMSGData,0203H
        ARGFRAME XSTACK, 0, STACK
        PUBLIC DhAppRouterManage_ProcessZDOStateChange
        FUNCTION DhAppRouterManage_ProcessZDOStateChange,0203H
        ARGFRAME XSTACK, 0, STACK
        PUBLIC DhAppRouterManage_TaskID
        PUBLIC DhAppRouterManage_TransID
        PUBLIC DongheAppRouter_Init
        FUNCTION DongheAppRouter_Init,021203H
        ARGFRAME XSTACK, 0, STACK
        LOCFRAME XSTACK, 9, STACK
        PUBLIC DongheAppRouter_ProcessEvent
        FUNCTION DongheAppRouter_ProcessEvent,021203H
        ARGFRAME XSTACK, 0, STACK
        LOCFRAME XSTACK, 12, STACK
        PUBLIC MySendtest_INClusterList
        PUBLIC MySendtest_OUTClusterList
        PUBLIC MySendtest_SimpleDesc
        PUBLIC MySendtest_Single_DstAddr
        PUBLIC MySendtest_epDesc
        
        CFI Names cfiNames0
        CFI StackFrame CFA_SP SP IDATA
        CFI StackFrame CFA_PSP16 PSP16 XDATA
        CFI StackFrame CFA_XSP16 XSP16 XDATA
        CFI StaticOverlayFrame CFA_IOVERLAY IOVERLAY
        CFI StaticOverlayFrame CFA_DOVERLAY DOVERLAY
        CFI Resource `PSW.CY`:1, `B.BR0`:1, `B.BR1`:1, `B.BR2`:1, `B.BR3`:1
        CFI Resource `B.BR4`:1, `B.BR5`:1, `B.BR6`:1, `B.BR7`:1, `VB.BR8`:1
        CFI Resource `VB.BR9`:1, `VB.BR10`:1, `VB.BR11`:1, `VB.BR12`:1
        CFI Resource `VB.BR13`:1, `VB.BR14`:1, `VB.BR15`:1, VB:8, B:8, A:8
        CFI Resource PSW:8, DPL0:8, DPH0:8, R0:8, R1:8, R2:8, R3:8, R4:8, R5:8
        CFI Resource R6:8, R7:8, V0:8, V1:8, V2:8, V3:8, V4:8, V5:8, V6:8, V7:8
        CFI Resource V8:8, V9:8, V10:8, V11:8, V12:8, V13:8, V14:8, V15:8, SP:8
        CFI Resource PSPH:8, PSPL:8, PSP16:16, XSPH:8, XSPL:8, XSP16:16
        CFI VirtualResource ?RET:24
        CFI Resource ?BRET_EXT:8
        CFI VirtualResource ?RET_HIGH:8, ?RET_LOW:8
        CFI ResourceParts PSP16 PSPH, PSPL
        CFI ResourceParts XSP16 XSPH, XSPL
        CFI ResourceParts ?RET ?BRET_EXT, ?RET_HIGH, ?RET_LOW
        CFI EndNames cfiNames0
        
        CFI Common cfiCommon0 Using cfiNames0
        CFI CodeAlign 1
        CFI DataAlign -1
        CFI ReturnAddress ?RET CODE
        CFI CFA_DOVERLAY Used
        CFI CFA_IOVERLAY Used
        CFI CFA_SP SP+-3
        CFI CFA_PSP16 PSP16+0
        CFI CFA_XSP16 XSP16+0
        CFI `PSW.CY` SameValue
        CFI `B.BR0` SameValue
        CFI `B.BR1` SameValue
        CFI `B.BR2` SameValue
        CFI `B.BR3` SameValue
        CFI `B.BR4` SameValue
        CFI `B.BR5` SameValue
        CFI `B.BR6` SameValue
        CFI `B.BR7` SameValue
        CFI `VB.BR8` SameValue
        CFI `VB.BR9` SameValue
        CFI `VB.BR10` SameValue
        CFI `VB.BR11` SameValue
        CFI `VB.BR12` SameValue
        CFI `VB.BR13` SameValue
        CFI `VB.BR14` SameValue
        CFI `VB.BR15` SameValue
        CFI VB SameValue
        CFI B Undefined
        CFI A Undefined
        CFI PSW SameValue
        CFI DPL0 SameValue
        CFI DPH0 SameValue
        CFI R0 Undefined
        CFI R1 Undefined
        CFI R2 Undefined
        CFI R3 Undefined
        CFI R4 Undefined
        CFI R5 Undefined
        CFI R6 SameValue
        CFI R7 SameValue
        CFI V0 SameValue
        CFI V1 SameValue
        CFI V2 SameValue
        CFI V3 SameValue
        CFI V4 SameValue
        CFI V5 SameValue
        CFI V6 SameValue
        CFI V7 SameValue
        CFI V8 SameValue
        CFI V9 SameValue
        CFI V10 SameValue
        CFI V11 SameValue
        CFI V12 SameValue
        CFI V13 SameValue
        CFI V14 SameValue
        CFI V15 SameValue
        CFI PSPH Undefined
        CFI PSPL Undefined
        CFI XSPH Undefined
        CFI XSPL Undefined
        CFI ?RET Concat
        CFI ?BRET_EXT Frame(CFA_SP, 3)
        CFI ?RET_HIGH Frame(CFA_SP, 2)
        CFI ?RET_LOW Frame(CFA_SP, 1)
        CFI EndCommon cfiCommon0
        
afRegister          SYMBOL "afRegister"
RegisterForKeys     SYMBOL "RegisterForKeys"
osal_msg_receive    SYMBOL "osal_msg_receive"
HalLedSet           SYMBOL "HalLedSet"
HalLedBlink         SYMBOL "HalLedBlink"
osal_msg_deallocate SYMBOL "osal_msg_deallocate"
??HalLedBlink?relay SYMBOL "?relay", HalLedBlink
??HalLedSet?relay   SYMBOL "?relay", HalLedSet
??RegisterForKeys?relay SYMBOL "?relay", RegisterForKeys
??afRegister?relay  SYMBOL "?relay", afRegister
??osal_msg_deallocate?relay SYMBOL "?relay", osal_msg_deallocate
??osal_msg_receive?relay SYMBOL "?relay", osal_msg_receive
DhAppRouterManage_HandleKeys SYMBOL "DhAppRouterManage_HandleKeys"
??DhAppRouterManage_HandleKeys?relay SYMBOL "?relay", DhAppRouterManage_HandleKeys
DhAppRouterManage_ProcessMSGData SYMBOL "DhAppRouterManage_ProcessMSGData"
??DhAppRouterManage_ProcessMSGData?relay SYMBOL "?relay", DhAppRouterManage_ProcessMSGData
DhAppRouterManage_ProcessZDOStateChange SYMBOL "DhAppRouterManage_ProcessZDOStateChange"
??DhAppRouterManage_ProcessZDOStateChange?relay SYMBOL "?relay", DhAppRouterManage_ProcessZDOStateChange
DongheAppRouter_Init SYMBOL "DongheAppRouter_Init"
??DongheAppRouter_Init?relay SYMBOL "?relay", DongheAppRouter_Init
DongheAppRouter_ProcessEvent SYMBOL "DongheAppRouter_ProcessEvent"
??DongheAppRouter_ProcessEvent?relay SYMBOL "?relay", DongheAppRouter_ProcessEvent

        EXTERN afRegister
        FUNCTION afRegister,0202H
        ARGFRAME ISTACK, 0, STACK
        ARGFRAME PSTACK, 0, STACK
        ARGFRAME XSTACK, 9, STACK
        ARGFRAME IOVERLAY, 0, STATIC
        ARGFRAME DOVERLAY, 0, STATIC
        EXTERN RegisterForKeys
        FUNCTION RegisterForKeys,0202H
        ARGFRAME ISTACK, 0, STACK
        ARGFRAME PSTACK, 0, STACK
        ARGFRAME XSTACK, 9, STACK
        ARGFRAME IOVERLAY, 0, STATIC
        ARGFRAME DOVERLAY, 0, STATIC
        EXTERN osal_msg_receive
        FUNCTION osal_msg_receive,0202H
        ARGFRAME ISTACK, 0, STACK
        ARGFRAME PSTACK, 0, STACK
        ARGFRAME XSTACK, 12, STACK
        ARGFRAME IOVERLAY, 0, STATIC
        ARGFRAME DOVERLAY, 0, STATIC
        EXTERN HalLedSet
        FUNCTION HalLedSet,0202H
        ARGFRAME ISTACK, 0, STACK
        ARGFRAME PSTACK, 0, STACK
        ARGFRAME XSTACK, 12, STACK
        ARGFRAME IOVERLAY, 0, STATIC
        ARGFRAME DOVERLAY, 0, STATIC
        EXTERN HalLedBlink
        FUNCTION HalLedBlink,0202H
        ARGFRAME ISTACK, 0, STACK
        ARGFRAME PSTACK, 0, STACK
        ARGFRAME XSTACK, 12, STACK
        ARGFRAME IOVERLAY, 0, STATIC
        ARGFRAME DOVERLAY, 0, STATIC
        EXTERN osal_msg_deallocate
        FUNCTION osal_msg_deallocate,0202H
        ARGFRAME ISTACK, 0, STACK
        ARGFRAME PSTACK, 0, STACK
        ARGFRAME XSTACK, 12, STACK
        ARGFRAME IOVERLAY, 0, STATIC
        ARGFRAME DOVERLAY, 0, STATIC
        EXTERN ??HalLedBlink?relay
        FUNCTION ??HalLedBlink?relay,00H
        EXTERN ??HalLedSet?relay
        FUNCTION ??HalLedSet?relay,00H
        EXTERN ??RegisterForKeys?relay
        FUNCTION ??RegisterForKeys?relay,00H
        EXTERN ??afRegister?relay
        FUNCTION ??afRegister?relay,00H
        EXTERN ??osal_msg_deallocate?relay
        FUNCTION ??osal_msg_deallocate?relay,00H
        EXTERN ??osal_msg_receive?relay
        FUNCTION ??osal_msg_receive?relay,00H

// D:\Junior College\Zigbee development technology and Practice\Zstack系统移植\ZStack-CC2530-2.5.1a\Projects\zstack\Samples\GenericApp\Source\DongheAppRouter.c
//    1 
//    2 #include "DongheApp.h"
//    3 #include "OSAL_DongheRouter.h"
//    4 #include "hal_lcd.h"
//    5 #include "hal_led.h"
//    6 #include "hal_key.h"
//    7 #include "hal_uart.h"
//    8 #include "OnBoard.h"
//    9 #include "OSAL.h"
//   10 #include "AF.h"
//   11 #include "ZDApp.h"
//   12 #include "ZDObject.h"
//   13 #include "ZDProfile.h"
//   14 #include "DebugTrace.h"
//   15 
//   16 

        RSEG XDATA_Z:XDATA:NOROOT(0)
        DATA8
//   17 byte DhAppRouterManage_TaskID;   // Task ID for internal task/event processing
DhAppRouterManage_TaskID:
        DS 1
        REQUIRE __INIT_XDATA_Z
//   18                           // This variable will be received when
//   19                           // DhAppRouterManage_Init() is called.

        RSEG XDATA_I:XDATA:NOROOT(0)
//   20 devStates_t DhAppRouterManage_NwkState=DEV_INIT;   //devStates_t; //DEV_INIT
DhAppRouterManage_NwkState:
        DATA8
        DS 1
        REQUIRE `?<Initializer for DhAppRouterManage_NwkState>`
        REQUIRE __INIT_XDATA_I
//   21 
//   22 

        RSEG XDATA_Z:XDATA:NOROOT(0)
        DATA8
//   23 byte DhAppRouterManage_TransID=0;  // This is the unique message ID (counter)
DhAppRouterManage_TransID:
        DS 1
        REQUIRE __INIT_XDATA_Z
//   24 

        RSEG XDATA_Z:XDATA:NOROOT(0)
        DATA8
//   25 afAddrType_t MySendtest_Single_DstAddr;
MySendtest_Single_DstAddr:
        DS 12
        REQUIRE __INIT_XDATA_Z

        RSEG XDATA_Z:XDATA:NOROOT(0)
        DATA8
//   26 endPointDesc_t  MySendtest_epDesc;
MySendtest_epDesc:
        DS 6
        REQUIRE __INIT_XDATA_Z
//   27 
//   28 
//   29 /*********************************************************************
//   30  * LOCAL FUNCTIONS
//   31  */
//   32 void DhAppRouterManage_ProcessZDOStateChange( void );
//   33 void DhAppRouterManage_ProcessMSGData( afIncomingMSGPacket_t *msg );
//   34 void DhAppRouterManage_HandleKeys(byte keys );
//   35 
//   36 /*********************************************************************
//   37  * NETWORK LAYER CALLBACKS
//   38  */
//   39 
//   40 /*********************************************************************
//   41  * PUBLIC FUNCTIONS
//   42  */
//   43 
//   44 /*********************************************************************
//   45  * @fn      DhAppRouterManage_Init
//   46  *
//   47  * @brief   Initialization function for the Generic App Task.
//   48  *          This is called during initialization and should contain
//   49  *          any application specific initialization (ie. hardware
//   50  *          initialization/setup, table initialization, power up
//   51  *          notificaiton ... ).
//   52  *
//   53  * @param   task_id - the ID assigned by OSAL.  This ID should be
//   54  *                    used to send messages and set timers.
//   55  *
//   56  * @return  none
//   57  */
//   58 

        RSEG XDATA_ROM_C:CONST:REORDER:NOROOT(0)
        DATA8
//   59 const uint16 MySendtest_INClusterList[MySendtest_MAX_OUTCLUSTERS]=
MySendtest_INClusterList:
        DATA16
        DW 1
        DW 2
        DW 3
        DW 4
//   60 {
//   61   MySendtest_PERIODIC_CLUSTERID,
//   62   MySendtest_GUANG_CLUSTERID,
//   63   MySendtest_WENDU_CLUSTERID,
//   64   MySendtest_SHIDU_CLUSTERID
//   65 };
//   66 

        RSEG XDATA_ROM_C:CONST:REORDER:NOROOT(0)
        DATA8
//   67 const uint16 MySendtest_OUTClusterList[MySendtest_MAX_INCLUSTERS]=
MySendtest_OUTClusterList:
        DATA16
        DW 1
        DW 2
        DW 3
        DW 4
//   68 {
//   69   MySendtest_SINGLE_CLUSTERID,
//   70   MySendtest_REGUANG_CLUSTERID,
//   71   MySendtest_REWENDU_CLUSTERID,
//   72   MySendtest_RESHIDU_CLUSTERID
//   73 };
//   74 

        RSEG XDATA_ROM_C:CONST:REORDER:NOROOT(0)
        DATA8
//   75 const SimpleDescriptionFormat_t MySendtest_SimpleDesc=
MySendtest_SimpleDesc:
        DB 16
        DATA16
        DW 3848
        DW 1
        DATA8
        DB 0
        DB 4
        DATA16
        DW MySendtest_INClusterList
        DATA8
        DB 4
        DATA16
        DW MySendtest_OUTClusterList
//   76 {
//   77   MySendtest_ENDPOINT,
//   78   MySendtest_PROFID,
//   79   MySendtest_DEVICEID,
//   80   MySendtest_DEVICE_VERSION,
//   81   MySendtest_FLAGS,
//   82   MySendtest_MAX_INCLUSTERS,
//   83   (uint16*)MySendtest_INClusterList,
//   84   MySendtest_MAX_OUTCLUSTERS,
//   85   (uint16*)MySendtest_OUTClusterList
//   86 };
//   87 
//   88 

        RSEG BANKED_CODE:CODE:NOROOT(0)
//   89 void DongheAppRouter_Init(uint8 task_id)
DongheAppRouter_Init:
        CFI Block cfiBlock0 Using cfiCommon0
        CFI Function DongheAppRouter_Init
        CODE
//   90 {
        FUNCALL DongheAppRouter_Init, afRegister
        LOCFRAME ISTACK, 0, STACK
        LOCFRAME PSTACK, 0, STACK
        LOCFRAME XSTACK, 9, STACK
        LOCFRAME IOVERLAY, 0, STATIC
        LOCFRAME DOVERLAY, 0, STATIC
        ARGFRAME ISTACK, 0, STACK
        ARGFRAME PSTACK, 0, STACK
        ARGFRAME XSTACK, 9, STACK
        ARGFRAME IOVERLAY, 0, STATIC
        ARGFRAME DOVERLAY, 0, STATIC
        FUNCALL DongheAppRouter_Init, RegisterForKeys
        LOCFRAME ISTACK, 0, STACK
        LOCFRAME PSTACK, 0, STACK
        LOCFRAME XSTACK, 9, STACK
        LOCFRAME IOVERLAY, 0, STATIC
        LOCFRAME DOVERLAY, 0, STATIC
        ARGFRAME ISTACK, 0, STACK
        ARGFRAME PSTACK, 0, STACK
        ARGFRAME XSTACK, 9, STACK
        ARGFRAME IOVERLAY, 0, STATIC
        ARGFRAME DOVERLAY, 0, STATIC
        MOV     A,#-0x9
        LCALL   ?BANKED_ENTER_XDATA
        CFI DPH0 load(1, XDATA, add(CFA_XSP16, literal(-1)))
        CFI DPL0 load(1, XDATA, add(CFA_XSP16, literal(-2)))
        CFI ?BRET_EXT load(1, XDATA, add(CFA_XSP16, literal(-3)))
        CFI ?RET_HIGH load(1, XDATA, add(CFA_XSP16, literal(-4)))
        CFI ?RET_LOW load(1, XDATA, add(CFA_XSP16, literal(-5)))
        CFI R7 load(1, XDATA, add(CFA_XSP16, literal(-6)))
        CFI V0 load(1, XDATA, add(CFA_XSP16, literal(-7)))
        CFI VB load(1, XDATA, add(CFA_XSP16, literal(-8)))
        CFI R6 load(1, XDATA, add(CFA_XSP16, literal(-9)))
        CFI CFA_SP SP+0
        CFI CFA_XSP16 add(XSP16, 9)
        ; Saved register size: 9
        ; Auto size: 0
        MOV     A,R1
//   91   DhAppRouterManage_TaskID = task_id;
        MOV     DPTR,#DhAppRouterManage_TaskID
        MOVX    @DPTR,A
//   92   MySendtest_Single_DstAddr.addrMode=afAddr16Bit;
        MOV     DPTR,#MySendtest_Single_DstAddr + 8
        MOV     A,#0x2
        MOVX    @DPTR,A
//   93   MySendtest_Single_DstAddr.endPoint=MySendtest_ENDPOINT;
        INC     DPTR
        MOV     A,#0x10
        MOVX    @DPTR,A
//   94   MySendtest_Single_DstAddr.addr.shortAddr=0x0000;
        MOV     DPTR,#MySendtest_Single_DstAddr
        CLR     A
        MOVX    @DPTR,A
        INC     DPTR
        MOVX    @DPTR,A
//   95 
//   96 
//   97   //DhAppRouterManage_TransID = 0;
//   98   MySendtest_epDesc.endPoint=MySendtest_ENDPOINT;
        MOV     DPTR,#MySendtest_epDesc
        MOV     A,#0x10
        MOVX    @DPTR,A
//   99   MySendtest_epDesc.task_id=&DhAppRouterManage_TaskID;
        INC     DPTR
        MOV     A,#DhAppRouterManage_TaskID & 0xff
        MOVX    @DPTR,A
        INC     DPTR
        MOV     A,#(DhAppRouterManage_TaskID >> 8) & 0xff
        MOVX    @DPTR,A
//  100   MySendtest_epDesc.simpleDesc=(SimpleDescriptionFormat_t *)&MySendtest_SimpleDesc ;
        INC     DPTR
        MOV     A,#MySendtest_SimpleDesc & 0xff
        MOVX    @DPTR,A
        INC     DPTR
        MOV     A,#(MySendtest_SimpleDesc >> 8) & 0xff
        MOVX    @DPTR,A
//  101   MySendtest_epDesc.latencyReq=noLatencyReqs;
        INC     DPTR
        CLR     A
        MOVX    @DPTR,A
//  102 
//  103 
//  104   afRegister(&MySendtest_epDesc);
        ; Setup parameters for call to function afRegister
        MOV     R2,#MySendtest_epDesc & 0xff
        MOV     R3,#(MySendtest_epDesc >> 8) & 0xff
        LCALL   ??afRegister?relay
//  105   RegisterForKeys(DhAppRouterManage_TaskID);
        ; Setup parameters for call to function RegisterForKeys
        MOV     DPTR,#DhAppRouterManage_TaskID
        MOVX    A,@DPTR
        MOV     R1,A
        LCALL   ??RegisterForKeys?relay
//  106 }
        MOV     R7,#0x1
        LJMP    ?BANKED_LEAVE_XDATA
        CFI EndBlock cfiBlock0
//  107 
//  108 /*********************************************************************
//  109  * @fn      DhAppRouterManage_ProcessEvent
//  110  *
//  111  * @brief   Generic Application Task event processor.  This function
//  112  *          is called to process all events for the task.  Events
//  113  *          include timers, messages and any other user defined events.
//  114  *
//  115  * @param   task_id  - The OSAL assigned task ID.
//  116  * @param   events - events to process.  This is a bit map and can
//  117  *                   contain more than one event.
//  118  *
//  119  * @return  none
//  120  */

        RSEG BANKED_CODE:CODE:NOROOT(0)
//  121 uint16 DongheAppRouter_ProcessEvent( uint8 task_id, uint16 events )
DongheAppRouter_ProcessEvent:
        CFI Block cfiBlock1 Using cfiCommon0
        CFI Function DongheAppRouter_ProcessEvent
        CODE
//  122 {
        FUNCALL DongheAppRouter_ProcessEvent, osal_msg_receive
        LOCFRAME ISTACK, 0, STACK
        LOCFRAME PSTACK, 0, STACK
        LOCFRAME XSTACK, 12, STACK
        LOCFRAME IOVERLAY, 0, STATIC
        LOCFRAME DOVERLAY, 0, STATIC
        ARGFRAME ISTACK, 0, STACK
        ARGFRAME PSTACK, 0, STACK
        ARGFRAME XSTACK, 12, STACK
        ARGFRAME IOVERLAY, 0, STATIC
        ARGFRAME DOVERLAY, 0, STATIC
        FUNCALL DongheAppRouter_ProcessEvent, HalLedSet
        LOCFRAME ISTACK, 0, STACK
        LOCFRAME PSTACK, 0, STACK
        LOCFRAME XSTACK, 12, STACK
        LOCFRAME IOVERLAY, 0, STATIC
        LOCFRAME DOVERLAY, 0, STATIC
        ARGFRAME ISTACK, 0, STACK
        ARGFRAME PSTACK, 0, STACK
        ARGFRAME XSTACK, 12, STACK
        ARGFRAME IOVERLAY, 0, STATIC
        ARGFRAME DOVERLAY, 0, STATIC
        FUNCALL DongheAppRouter_ProcessEvent, HalLedBlink
        LOCFRAME ISTACK, 0, STACK
        LOCFRAME PSTACK, 0, STACK
        LOCFRAME XSTACK, 12, STACK
        LOCFRAME IOVERLAY, 0, STATIC
        LOCFRAME DOVERLAY, 0, STATIC
        ARGFRAME ISTACK, 0, STACK
        ARGFRAME PSTACK, 0, STACK
        ARGFRAME XSTACK, 12, STACK
        ARGFRAME IOVERLAY, 0, STATIC
        ARGFRAME DOVERLAY, 0, STATIC
        FUNCALL DongheAppRouter_ProcessEvent, osal_msg_deallocate
        LOCFRAME ISTACK, 0, STACK
        LOCFRAME PSTACK, 0, STACK
        LOCFRAME XSTACK, 12, STACK
        LOCFRAME IOVERLAY, 0, STATIC
        LOCFRAME DOVERLAY, 0, STATIC
        ARGFRAME ISTACK, 0, STACK
        ARGFRAME PSTACK, 0, STACK
        ARGFRAME XSTACK, 12, STACK
        ARGFRAME IOVERLAY, 0, STATIC
        ARGFRAME DOVERLAY, 0, STATIC
        FUNCALL DongheAppRouter_ProcessEvent, osal_msg_receive
        LOCFRAME ISTACK, 0, STACK
        LOCFRAME PSTACK, 0, STACK
        LOCFRAME XSTACK, 12, STACK
        LOCFRAME IOVERLAY, 0, STATIC
        LOCFRAME DOVERLAY, 0, STATIC
        ARGFRAME ISTACK, 0, STACK
        ARGFRAME PSTACK, 0, STACK
        ARGFRAME XSTACK, 12, STACK
        ARGFRAME IOVERLAY, 0, STATIC
        ARGFRAME DOVERLAY, 0, STATIC
        MOV     A,#-0xc
        LCALL   ?BANKED_ENTER_XDATA
        CFI DPH0 load(1, XDATA, add(CFA_XSP16, literal(-1)))
        CFI DPL0 load(1, XDATA, add(CFA_XSP16, literal(-2)))
        CFI ?BRET_EXT load(1, XDATA, add(CFA_XSP16, literal(-3)))
        CFI ?RET_HIGH load(1, XDATA, add(CFA_XSP16, literal(-4)))
        CFI ?RET_LOW load(1, XDATA, add(CFA_XSP16, literal(-5)))
        CFI R7 load(1, XDATA, add(CFA_XSP16, literal(-6)))
        CFI V3 load(1, XDATA, add(CFA_XSP16, literal(-7)))
        CFI V2 load(1, XDATA, add(CFA_XSP16, literal(-8)))
        CFI V1 load(1, XDATA, add(CFA_XSP16, literal(-9)))
        CFI V0 load(1, XDATA, add(CFA_XSP16, literal(-10)))
        CFI VB load(1, XDATA, add(CFA_XSP16, literal(-11)))
        CFI R6 load(1, XDATA, add(CFA_XSP16, literal(-12)))
        CFI CFA_SP SP+0
        CFI CFA_XSP16 add(XSP16, 12)
        ; Saved register size: 12
        ; Auto size: 0
        MOV     ?V0 + 0,R2
        MOV     ?V0 + 1,R3
//  123   afIncomingMSGPacket_t *MSGpkt;
//  124   //afDataConfirm_t *afDataConfirm;
//  125 
//  126   // Data Confirmation message fields
//  127   //byte sentEP;
//  128   //ZStatus_t sentStatus;
//  129   //byte sentTransID;       // This should match the value sent
//  130   (void)task_id;  // Intentionally unreferenced parameter
//  131 
//  132   if ( events & SYS_EVENT_MSG )
        MOV     A,R3
        ANL     A,#0x80
        JZ      ??DongheAppRouter_ProcessEvent_0
//  133   {
//  134     MSGpkt = (afIncomingMSGPacket_t *)osal_msg_receive( DhAppRouterManage_TaskID );
        ; Setup parameters for call to function osal_msg_receive
        SJMP    ??DongheAppRouter_ProcessEvent_1
//  135     while ( MSGpkt )
//  136     {
//  137       switch ( MSGpkt->hdr.event )
??DongheAppRouter_ProcessEvent_2:
        MOV     DPL,R6
        MOV     DPH,R7
        MOVX    A,@DPTR
        XRL     A,#0xd1
        JNZ     ??DongheAppRouter_ProcessEvent_3
//  138       {
//  139         case KEY_CHANGE:
//  140           DhAppRouterManage_HandleKeys(((keyChange_t *)MSGpkt)->keys );
//  141           break;
//  142 
//  143         case AF_INCOMING_MSG_CMD:
//  144           DhAppRouterManage_ProcessMSGData(MSGpkt);
//  145           break;
//  146 
//  147         case ZDO_STATE_CHANGE:
//  148           DhAppRouterManage_NwkState = (devStates_t)(MSGpkt->hdr.status);
        INC     DPTR
        MOVX    A,@DPTR
        MOV     DPTR,#DhAppRouterManage_NwkState
        MOVX    @DPTR,A
//  149           //GenericApp_NwkState == DEV_ROUTER
//  150           //GenericApp_NwkState == DEV_END_DEVICE
//  151           if (DhAppRouterManage_NwkState == DEV_ROUTER || DhAppRouterManage_NwkState == DEV_END_DEVICE)
        XRL     A,#0x7
        JZ      ??DongheAppRouter_ProcessEvent_4
        MOVX    A,@DPTR
        XRL     A,#0x6
        JNZ     ??DongheAppRouter_ProcessEvent_3
//  152           {
//  153             HalLedSet (HAL_LED_1, HAL_LED_MODE_OFF);
??DongheAppRouter_ProcessEvent_4:
        ; Setup parameters for call to function HalLedSet
        MOV     R2,#0x0
        MOV     R1,#0x1
        LCALL   ??HalLedSet?relay
//  154             HalLedBlink(HAL_LED_2,5,50,1000);
        ; Setup parameters for call to function HalLedBlink
        MOV     R4,#-0x18
        MOV     R5,#0x3
        MOV     R3,#0x32
        MOV     R2,#0x5
        MOV     R1,#0x2
        LCALL   ??HalLedBlink?relay
//  155             //DhAppRouterManage_ProcessZDOStateChange();
//  156           }
//  157           break;
//  158 
//  159         default:
//  160           break;
//  161       }
//  162 
//  163       // Release the memory
//  164       osal_msg_deallocate( (uint8 *)MSGpkt );
??DongheAppRouter_ProcessEvent_3:
        ; Setup parameters for call to function osal_msg_deallocate
        MOV     A,R6
        MOV     R2,A
        MOV     A,R7
        MOV     R3,A
        LCALL   ??osal_msg_deallocate?relay
//  165 
//  166       // Next
//  167       MSGpkt = (afIncomingMSGPacket_t *)osal_msg_receive( DhAppRouterManage_TaskID );
        ; Setup parameters for call to function osal_msg_receive
??DongheAppRouter_ProcessEvent_1:
        MOV     DPTR,#DhAppRouterManage_TaskID
        MOVX    A,@DPTR
        MOV     R1,A
        LCALL   ??osal_msg_receive?relay
        MOV     ?V0 + 2,R2
        MOV     ?V0 + 3,R3
        MOV     R6,?V0 + 2
        MOV     R7,?V0 + 3
//  168     }
        MOV     A,R6
        ORL     A,R7
        JNZ     ??DongheAppRouter_ProcessEvent_2
//  169 
//  170     // return unprocessed events
//  171     return (events ^ SYS_EVENT_MSG);
        MOV     R2,?V0 + 0
        MOV     A,?V0 + 1
        XRL     A,#0x80
        MOV     R3,A
        SJMP    ??DongheAppRouter_ProcessEvent_5
//  172   }
//  173 
//  174   return 0;
??DongheAppRouter_ProcessEvent_0:
        MOV     R2,#0x0
        MOV     R3,#0x0
??DongheAppRouter_ProcessEvent_5:
        MOV     R7,#0x4
        LJMP    ?BANKED_LEAVE_XDATA
        CFI EndBlock cfiBlock1
//  175 }
//  176 
//  177 /*********************************************************************
//  178  * Event Generation Functions
//  179  */
//  180 
//  181 /*********************************************************************
//  182  * @fn      DhAppRouterManage_ProcessZDOMsgs()
//  183  *
//  184  * @brief   Process response messages
//  185  *
//  186  * @param   none
//  187  *
//  188  * @return  none
//  189  */

        RSEG BANKED_CODE:CODE:NOROOT(0)
//  190 void DhAppRouterManage_ProcessZDOStateChange()
DhAppRouterManage_ProcessZDOStateChange:
        CFI Block cfiBlock2 Using cfiCommon0
        CFI Function DhAppRouterManage_ProcessZDOStateChange
        CODE
//  191 {
        ; Saved register size: 0
        ; Auto size: 0
//  192 
//  193 }
        LJMP    ?BRET
        CFI EndBlock cfiBlock2
//  194 
//  195 /*********************************************************************
//  196  * @fn      DhAppRouterManage_HandleKeys
//  197  *
//  198  * @brief   Handles all key events for this device.
//  199  *
//  200  * @param   shift - true if in shift/alt.
//  201  * @param   keys - bit field for key events. Valid entries:
//  202  *                 HAL_KEY_SW_4
//  203  *                 HAL_KEY_SW_3
//  204  *                 HAL_KEY_SW_2
//  205  *                 HAL_KEY_SW_1
//  206  *
//  207  * @return  none
//  208  */

        RSEG BANKED_CODE:CODE:NOROOT(0)
//  209 void DhAppRouterManage_HandleKeys(byte keys)
DhAppRouterManage_HandleKeys:
        CFI Block cfiBlock3 Using cfiCommon0
        CFI Function DhAppRouterManage_HandleKeys
        CODE
//  210 {
        ; Saved register size: 0
        ; Auto size: 0
//  211 
//  212   // Shift is used to make each button/switch dual purpose.
//  213     if ( keys & HAL_KEY_SW_1 )
//  214     {
//  215     }
//  216 
//  217     if ( keys & HAL_KEY_SW_3 )
//  218     {
//  219     }
//  220 
//  221     if ( keys & HAL_KEY_SW_4 )
//  222     {
//  223     }
//  224     if ( keys & HAL_KEY_SW_5 )
//  225     {
//  226     }
//  227     if ( keys & HAL_KEY_SW_6 )
//  228     {
//  229     }
//  230 }
        LJMP    ?BRET
        CFI EndBlock cfiBlock3
//  231 
//  232 /*********************************************************************
//  233  * LOCAL FUNCTIONS
//  234  */
//  235 
//  236 /*********************************************************************
//  237  * @fn      DhAppRouterManage_MessageMSGCB
//  238  *
//  239  * @brief   Data message processor callback.  This function processes
//  240  *          any incoming data - probably from other devices.  So, based
//  241  *          on cluster ID, perform the intended action.
//  242  *
//  243  * @param   none
//  244  *
//  245  * @return  none
//  246  */

        RSEG BANKED_CODE:CODE:NOROOT(0)
//  247 void DhAppRouterManage_ProcessMSGData( afIncomingMSGPacket_t *msg )
DhAppRouterManage_ProcessMSGData:
        CFI Block cfiBlock4 Using cfiCommon0
        CFI Function DhAppRouterManage_ProcessMSGData
        CODE
//  248 {
        ; Saved register size: 0
        ; Auto size: 0
//  249   switch ( msg->clusterId )
//  250   {
//  251     case MySendtest_PERIODIC_CLUSTERID:
//  252       break;
//  253 
//  254     case MySendtest_WENDU_CLUSTERID:
//  255       break;
//  256 
//  257     case MySendtest_GUANG_CLUSTERID:
//  258       break;
//  259 
//  260     case MySendtest_SHIDU_CLUSTERID:
//  261       break;
//  262 
//  263     default:
//  264       break;
//  265 
//  266   }
//  267 }
        LJMP    ?BRET
        CFI EndBlock cfiBlock4

        RSEG XDATA_ID:CODE:NOROOT(0)
`?<Initializer for DhAppRouterManage_NwkState>`:
        DATA8
        DB 1

        RSEG BANK_RELAYS:CODE:REORDER:NOROOT(0)
??DongheAppRouter_Init?relay:
        LCALL   ?BDISPATCH
        DATA
        DC24    DongheAppRouter_Init

        RSEG BANK_RELAYS:CODE:REORDER:NOROOT(0)
??DongheAppRouter_ProcessEvent?relay:
        LCALL   ?BDISPATCH
        DATA
        DC24    DongheAppRouter_ProcessEvent

        RSEG BANK_RELAYS:CODE:REORDER:NOROOT(0)
??DhAppRouterManage_ProcessZDOStateChange?relay:
        LCALL   ?BDISPATCH
        DATA
        DC24    DhAppRouterManage_ProcessZDOStateChange

        RSEG BANK_RELAYS:CODE:REORDER:NOROOT(0)
??DhAppRouterManage_HandleKeys?relay:
        LCALL   ?BDISPATCH
        DATA
        DC24    DhAppRouterManage_HandleKeys

        RSEG BANK_RELAYS:CODE:REORDER:NOROOT(0)
??DhAppRouterManage_ProcessMSGData?relay:
        LCALL   ?BDISPATCH
        DATA
        DC24    DhAppRouterManage_ProcessMSGData

        END
// 
// 186 bytes in segment BANKED_CODE
//  30 bytes in segment BANK_RELAYS
//   1 byte  in segment XDATA_I
//   1 byte  in segment XDATA_ID
//  28 bytes in segment XDATA_ROM_C
//  20 bytes in segment XDATA_Z
// 
// 217 bytes of CODE  memory
//  28 bytes of CONST memory
//  21 bytes of XDATA memory
//
//Errors: none
//Warnings: none
