///////////////////////////////////////////////////////////////////////////////
//                                                                            /
// IAR C/C++ Compiler V8.10.1.10194/W32 for 8051        06/Dec/2018  20:25:34 /
// Copyright 2004-2011 IAR Systems AB.                                        /
//                                                                            /
//    Core               =  plain                                             /
//    Code model         =  banked                                            /
//    Data model         =  large                                             /
//    Calling convention =  xdata reentrant                                   /
//    Constant location  =  data_rom                                          /
//    Dptr setup         =  1,16                                              /
//    Source file        =  D:\Junior College\Zigbee development technology   /
//                          and Practice\Zstack系统移植\ZStack-CC2530-2.5.1a\ /
//                          Projects\zstack\ZMain\TI2530DB\ZMain.c            /
//    Command line       =  -f "D:\Junior College\Zigbee development          /
//                          technology and Practice\Zstack系统移植\ZStack-CC2 /
//                          530-2.5.1a\Projects\zstack\Samples\GenericApp\CC2 /
//                          530DB\..\..\..\Tools\CC2530DB\f8wCoord.cfg"       /
//                          (-DCPU32MHZ -DROOT=__near_func                    /
//                          -DMAC_CFG_APP_PENDING_QUEUE=TRUE                  /
//                          -DMAC_CFG_TX_DATA_MAX=5 -DMAC_CFG_TX_MAX=8        /
//                          -DMAC_CFG_RX_MAX=5 -DZDO_COORDINATOR -DRTR_NWK)   /
//                          -f "D:\Junior College\Zigbee development          /
//                          technology and Practice\Zstack系统移植\ZStack-CC2 /
//                          530-2.5.1a\Projects\zstack\Samples\GenericApp\CC2 /
//                          530DB\..\..\..\Tools\CC2530DB\f8wConfig.cfg"      /
//                          (-DZIGBEEPRO -DSECURE=0 -DZG_SECURE_DYNAMIC=0     /
//                          -DREFLECTOR -DDEFAULT_CHANLIST=0x00000800         /
//                          -DZDAPP_CONFIG_PAN_ID=0xFFFF                      /
//                          -DNWK_START_DELAY=100 -DEXTENDED_JOINING_RANDOM_M /
//                          ASK=0x007F -DBEACON_REQUEST_DELAY=100             /
//                          -DBEACON_REQ_DELAY_MASK=0x00FF                    /
//                          -DLINK_STATUS_JITTER_MASK=0x007F                  /
//                          -DROUTE_EXPIRY_TIME=30 -DAPSC_ACK_WAIT_DURATION_P /
//                          OLLED=3000 -DNWK_INDIRECT_MSG_TIMEOUT=7           /
//                          -DMAX_RREQ_ENTRIES=8 -DAPSC_MAX_FRAME_RETRIES=3   /
//                          -DNWK_MAX_DATA_RETRIES=2                          /
//                          -DMAX_POLL_FAILURE_RETRIES=2 -DMAX_BCAST=9        /
//                          -DAPS_MAX_GROUPS=16 -DMAX_RTG_ENTRIES=40          /
//                          -DNWK_MAX_BINDING_ENTRIES=4                       /
//                          -DMAX_BINDING_CLUSTER_IDS=4                       /
//                          "-DDEFAULT_KEY={0x01, 0x03, 0x05, 0x07, 0x09,     /
//                          0x0B, 0x0D, 0x0F, 0x00, 0x02, 0x04, 0x06, 0x08,   /
//                          0x0A, 0x0C, 0x0D}" -DMAC_MAX_FRAME_SIZE=116       /
//                          -DZDNWKMGR_MIN_TRANSMISSIONS=20 "-DCONST=const    /
//                          __code" -DGENERIC=__generic                       /
//                          -DRFD_RCVC_ALWAYS_ON=FALSE -DPOLL_RATE=1000       /
//                          -DQUEUED_POLL_RATE=100 -DRESPONSE_POLL_RATE=100)  /
//                          -DREJOIN_POLL_RATE=440 "D:\Junior College\Zigbee  /
//                          development technology and                        /
//                          Practice\Zstack系统移植\ZStack-CC2530-2.5.1a\Proj /
//                          ects\zstack\ZMain\TI2530DB\ZMain.c" -D ZTOOL_P1   /
//                          -D xMT_TASK -D xMT_SYS_FUNC -D xMT_ZDO_FUNC -D    /
//                          xLCD_SUPPORTED=DEBUG -lC "D:\Junior               /
//                          College\Zigbee development technology and         /
//                          Practice\Zstack系统移植\ZStack-CC2530-2.5.1a\Proj /
//                          ects\zstack\Samples\GenericApp\CC2530DB\Coordinat /
//                          orEB\List\" -lA "D:\Junior College\Zigbee         /
//                          development technology and                        /
//                          Practice\Zstack系统移植\ZStack-CC2530-2.5.1a\Proj /
//                          ects\zstack\Samples\GenericApp\CC2530DB\Coordinat /
//                          orEB\List\" --diag_suppress Pe001,Pa010 -o        /
//                          "D:\Junior College\Zigbee development technology  /
//                          and Practice\Zstack系统移植\ZStack-CC2530-2.5.1a\ /
//                          Projects\zstack\Samples\GenericApp\CC2530DB\Coord /
//                          inatorEB\Obj\" -e --no_code_motion --debug        /
//                          --core=plain --dptr=16,1 --data_model=large       /
//                          --code_model=banked --calling_convention=xdata_re /
//                          entrant --place_constants=data_rom                /
//                          --nr_virtual_regs 16 -I "D:\Junior                /
//                          College\Zigbee development technology and         /
//                          Practice\Zstack系统移植\ZStack-CC2530-2.5.1a\Proj /
//                          ects\zstack\Samples\GenericApp\CC2530DB\" -I      /
//                          "D:\Junior College\Zigbee development technology  /
//                          and Practice\Zstack系统移植\ZStack-CC2530-2.5.1a\ /
//                          Projects\zstack\Samples\GenericApp\CC2530DB\..\So /
//                          urce\" -I "D:\Junior College\Zigbee development   /
//                          technology and Practice\Zstack系统移植\ZStack-CC2 /
//                          530-2.5.1a\Projects\zstack\Samples\GenericApp\CC2 /
//                          530DB\..\..\..\ZMain\TI2530DB\" -I "D:\Junior     /
//                          College\Zigbee development technology and         /
//                          Practice\Zstack系统移植\ZStack-CC2530-2.5.1a\Proj /
//                          ects\zstack\Samples\GenericApp\CC2530DB\..\..\..\ /
//                          ..\..\Components\hal\include\" -I "D:\Junior      /
//                          College\Zigbee development technology and         /
//                          Practice\Zstack系统移植\ZStack-CC2530-2.5.1a\Proj /
//                          ects\zstack\Samples\GenericApp\CC2530DB\..\..\..\ /
//                          ..\..\Components\hal\target\CC2530EB\" -I         /
//                          "D:\Junior College\Zigbee development technology  /
//                          and Practice\Zstack系统移植\ZStack-CC2530-2.5.1a\ /
//                          Projects\zstack\Samples\GenericApp\CC2530DB\..\.. /
//                          \..\..\..\Components\mac\include\" -I "D:\Junior  /
//                          College\Zigbee development technology and         /
//                          Practice\Zstack系统移植\ZStack-CC2530-2.5.1a\Proj /
//                          ects\zstack\Samples\GenericApp\CC2530DB\..\..\..\ /
//                          ..\..\Components\mac\high_level\" -I "D:\Junior   /
//                          College\Zigbee development technology and         /
//                          Practice\Zstack系统移植\ZStack-CC2530-2.5.1a\Proj /
//                          ects\zstack\Samples\GenericApp\CC2530DB\..\..\..\ /
//                          ..\..\Components\mac\low_level\srf04\" -I         /
//                          "D:\Junior College\Zigbee development technology  /
//                          and Practice\Zstack系统移植\ZStack-CC2530-2.5.1a\ /
//                          Projects\zstack\Samples\GenericApp\CC2530DB\..\.. /
//                          \..\..\..\Components\mac\low_level\srf04\single_c /
//                          hip\" -I "D:\Junior College\Zigbee development    /
//                          technology and Practice\Zstack系统移植\ZStack-CC2 /
//                          530-2.5.1a\Projects\zstack\Samples\GenericApp\CC2 /
//                          530DB\..\..\..\..\..\Components\mt\" -I           /
//                          "D:\Junior College\Zigbee development technology  /
//                          and Practice\Zstack系统移植\ZStack-CC2530-2.5.1a\ /
//                          Projects\zstack\Samples\GenericApp\CC2530DB\..\.. /
//                          \..\..\..\Components\osal\include\" -I            /
//                          "D:\Junior College\Zigbee development technology  /
//                          and Practice\Zstack系统移植\ZStack-CC2530-2.5.1a\ /
//                          Projects\zstack\Samples\GenericApp\CC2530DB\..\.. /
//                          \..\..\..\Components\services\saddr\" -I          /
//                          "D:\Junior College\Zigbee development technology  /
//                          and Practice\Zstack系统移植\ZStack-CC2530-2.5.1a\ /
//                          Projects\zstack\Samples\GenericApp\CC2530DB\..\.. /
//                          \..\..\..\Components\services\sdata\" -I          /
//                          "D:\Junior College\Zigbee development technology  /
//                          and Practice\Zstack系统移植\ZStack-CC2530-2.5.1a\ /
//                          Projects\zstack\Samples\GenericApp\CC2530DB\..\.. /
//                          \..\..\..\Components\stack\af\" -I "D:\Junior     /
//                          College\Zigbee development technology and         /
//                          Practice\Zstack系统移植\ZStack-CC2530-2.5.1a\Proj /
//                          ects\zstack\Samples\GenericApp\CC2530DB\..\..\..\ /
//                          ..\..\Components\stack\nwk\" -I "D:\Junior        /
//                          College\Zigbee development technology and         /
//                          Practice\Zstack系统移植\ZStack-CC2530-2.5.1a\Proj /
//                          ects\zstack\Samples\GenericApp\CC2530DB\..\..\..\ /
//                          ..\..\Components\stack\sapi\" -I "D:\Junior       /
//                          College\Zigbee development technology and         /
//                          Practice\Zstack系统移植\ZStack-CC2530-2.5.1a\Proj /
//                          ects\zstack\Samples\GenericApp\CC2530DB\..\..\..\ /
//                          ..\..\Components\stack\sec\" -I "D:\Junior        /
//                          College\Zigbee development technology and         /
//                          Practice\Zstack系统移植\ZStack-CC2530-2.5.1a\Proj /
//                          ects\zstack\Samples\GenericApp\CC2530DB\..\..\..\ /
//                          ..\..\Components\stack\sys\" -I "D:\Junior        /
//                          College\Zigbee development technology and         /
//                          Practice\Zstack系统移植\ZStack-CC2530-2.5.1a\Proj /
//                          ects\zstack\Samples\GenericApp\CC2530DB\..\..\..\ /
//                          ..\..\Components\stack\zdo\" -I "D:\Junior        /
//                          College\Zigbee development technology and         /
//                          Practice\Zstack系统移植\ZStack-CC2530-2.5.1a\Proj /
//                          ects\zstack\Samples\GenericApp\CC2530DB\..\..\..\ /
//                          ..\..\Components\zmac\" -I "D:\Junior             /
//                          College\Zigbee development technology and         /
//                          Practice\Zstack系统移植\ZStack-CC2530-2.5.1a\Proj /
//                          ects\zstack\Samples\GenericApp\CC2530DB\..\..\..\ /
//                          ..\..\Components\zmac\f8w\" -Ohz                  /
//                          --require_prototypes                              /
//    List file          =  D:\Junior College\Zigbee development technology   /
//                          and Practice\Zstack系统移植\ZStack-CC2530-2.5.1a\ /
//                          Projects\zstack\Samples\GenericApp\CC2530DB\Coord /
//                          inatorEB\List\ZMain.s51                           /
//                                                                            /
//                                                                            /
///////////////////////////////////////////////////////////////////////////////

        NAME ZMain

        RTMODEL "__SystemLibrary", "CLib"
        RTMODEL "__calling_convention", "xdata_reentrant"
        RTMODEL "__code_model", "banked"
        RTMODEL "__core", "plain"
        RTMODEL "__data_model", "large"
        RTMODEL "__dptr_size", "16"
        RTMODEL "__extended_stack", "disabled"
        RTMODEL "__location_for_constants", "data"
        RTMODEL "__number_of_dptrs", "1"
        RTMODEL "__rt_version", "1"

        RSEG DOVERLAY:DATA:NOROOT(0)
        RSEG IOVERLAY:IDATA:NOROOT(0)
        RSEG ISTACK:IDATA:NOROOT(0)
        RSEG PSTACK:XDATA:NOROOT(0)
        RSEG XSTACK:XDATA:NOROOT(0)

        EXTERN ?ALLOC_XSTACK8
        EXTERN ?BANKED_ENTER_XDATA
        EXTERN ?BANKED_LEAVE_XDATA
        EXTERN ?BDISPATCH
        EXTERN ?BRET
        EXTERN ?DEALLOC_XSTACK8
        EXTERN ?MOVE_LONG8_XDATA_XDATA
        EXTERN ?PUSH_XSTACK_I_THREE
        EXTERN ?PUSH_XSTACK_I_TWO
        EXTERN ?V0
        EXTERN ?XSP

        PUBLIC ??main?relay
        FUNCTION ??main?relay,0203H
        FUNCTION ??zmain_ext_addr?relay,0203H
        PUBWEAK CLKCONCMD
        PUBWEAK CLKCONSTA
        PUBWEAK P0DIR
        PUBWEAK P0INP
        PUBWEAK P2DIR
        PUBWEAK SLEEPCMD
        PUBWEAK SLEEPSTA
        PUBWEAK _A_P0
        PUBWEAK _A_P2
        PUBLIC main
        FUNCTION main,0a1a03H
        ARGFRAME XSTACK, 0, STACK
        FUNCTION zmain_ext_addr,021203H
        ARGFRAME XSTACK, 0, STACK
        ARGFRAME IOVERLAY, 0, STATIC
        ARGFRAME DOVERLAY, 0, STATIC
        LOCFRAME ISTACK, 2, STACK
        LOCFRAME XSTACK, 23, STACK
        
        CFI Names cfiNames0
        CFI StackFrame CFA_SP SP IDATA
        CFI StackFrame CFA_PSP16 PSP16 XDATA
        CFI StackFrame CFA_XSP16 XSP16 XDATA
        CFI StaticOverlayFrame CFA_IOVERLAY IOVERLAY
        CFI StaticOverlayFrame CFA_DOVERLAY DOVERLAY
        CFI Resource `PSW.CY`:1, `B.BR0`:1, `B.BR1`:1, `B.BR2`:1, `B.BR3`:1
        CFI Resource `B.BR4`:1, `B.BR5`:1, `B.BR6`:1, `B.BR7`:1, `VB.BR8`:1
        CFI Resource `VB.BR9`:1, `VB.BR10`:1, `VB.BR11`:1, `VB.BR12`:1
        CFI Resource `VB.BR13`:1, `VB.BR14`:1, `VB.BR15`:1, VB:8, B:8, A:8
        CFI Resource PSW:8, DPL0:8, DPH0:8, R0:8, R1:8, R2:8, R3:8, R4:8, R5:8
        CFI Resource R6:8, R7:8, V0:8, V1:8, V2:8, V3:8, V4:8, V5:8, V6:8, V7:8
        CFI Resource V8:8, V9:8, V10:8, V11:8, V12:8, V13:8, V14:8, V15:8, SP:8
        CFI Resource PSPH:8, PSPL:8, PSP16:16, XSPH:8, XSPL:8, XSP16:16
        CFI VirtualResource ?RET:24
        CFI Resource ?BRET_EXT:8
        CFI VirtualResource ?RET_HIGH:8, ?RET_LOW:8
        CFI ResourceParts PSP16 PSPH, PSPL
        CFI ResourceParts XSP16 XSPH, XSPL
        CFI ResourceParts ?RET ?BRET_EXT, ?RET_HIGH, ?RET_LOW
        CFI EndNames cfiNames0
        
        CFI Common cfiCommon0 Using cfiNames0
        CFI CodeAlign 1
        CFI DataAlign -1
        CFI ReturnAddress ?RET CODE
        CFI CFA_DOVERLAY Used
        CFI CFA_IOVERLAY Used
        CFI CFA_SP SP+-3
        CFI CFA_PSP16 PSP16+0
        CFI CFA_XSP16 XSP16+0
        CFI `PSW.CY` SameValue
        CFI `B.BR0` SameValue
        CFI `B.BR1` SameValue
        CFI `B.BR2` SameValue
        CFI `B.BR3` SameValue
        CFI `B.BR4` SameValue
        CFI `B.BR5` SameValue
        CFI `B.BR6` SameValue
        CFI `B.BR7` SameValue
        CFI `VB.BR8` SameValue
        CFI `VB.BR9` SameValue
        CFI `VB.BR10` SameValue
        CFI `VB.BR11` SameValue
        CFI `VB.BR12` SameValue
        CFI `VB.BR13` SameValue
        CFI `VB.BR14` SameValue
        CFI `VB.BR15` SameValue
        CFI VB SameValue
        CFI B Undefined
        CFI A Undefined
        CFI PSW SameValue
        CFI DPL0 SameValue
        CFI DPH0 SameValue
        CFI R0 Undefined
        CFI R1 Undefined
        CFI R2 Undefined
        CFI R3 Undefined
        CFI R4 Undefined
        CFI R5 Undefined
        CFI R6 SameValue
        CFI R7 SameValue
        CFI V0 SameValue
        CFI V1 SameValue
        CFI V2 SameValue
        CFI V3 SameValue
        CFI V4 SameValue
        CFI V5 SameValue
        CFI V6 SameValue
        CFI V7 SameValue
        CFI V8 SameValue
        CFI V9 SameValue
        CFI V10 SameValue
        CFI V11 SameValue
        CFI V12 SameValue
        CFI V13 SameValue
        CFI V14 SameValue
        CFI V15 SameValue
        CFI PSPH Undefined
        CFI PSPL Undefined
        CFI XSPH Undefined
        CFI XSPL Undefined
        CFI ?RET Concat
        CFI ?BRET_EXT Frame(CFA_SP, 3)
        CFI ?RET_HIGH Frame(CFA_SP, 2)
        CFI ?RET_LOW Frame(CFA_SP, 1)
        CFI EndCommon cfiCommon0
        
        
        CFI Common cfiCommon1 Using cfiNames0
        CFI CodeAlign 1
        CFI DataAlign -1
        CFI ReturnAddress ?RET CODE
        CFI CFA_DOVERLAY Used
        CFI CFA_IOVERLAY Used
        CFI CFA_SP SP+-2
        CFI CFA_PSP16 PSP16+0
        CFI CFA_XSP16 XSP16+0
        CFI `PSW.CY` SameValue
        CFI `B.BR0` SameValue
        CFI `B.BR1` SameValue
        CFI `B.BR2` SameValue
        CFI `B.BR3` SameValue
        CFI `B.BR4` SameValue
        CFI `B.BR5` SameValue
        CFI `B.BR6` SameValue
        CFI `B.BR7` SameValue
        CFI `VB.BR8` SameValue
        CFI `VB.BR9` SameValue
        CFI `VB.BR10` SameValue
        CFI `VB.BR11` SameValue
        CFI `VB.BR12` SameValue
        CFI `VB.BR13` SameValue
        CFI `VB.BR14` SameValue
        CFI `VB.BR15` SameValue
        CFI VB SameValue
        CFI B SameValue
        CFI A SameValue
        CFI PSW SameValue
        CFI DPL0 SameValue
        CFI DPH0 SameValue
        CFI R0 SameValue
        CFI R1 SameValue
        CFI R2 SameValue
        CFI R3 SameValue
        CFI R4 SameValue
        CFI R5 SameValue
        CFI R6 SameValue
        CFI R7 SameValue
        CFI V0 SameValue
        CFI V1 SameValue
        CFI V2 SameValue
        CFI V3 SameValue
        CFI V4 SameValue
        CFI V5 SameValue
        CFI V6 SameValue
        CFI V7 SameValue
        CFI V8 SameValue
        CFI V9 SameValue
        CFI V10 SameValue
        CFI V11 SameValue
        CFI V12 SameValue
        CFI V13 SameValue
        CFI V14 SameValue
        CFI V15 SameValue
        CFI PSPH Undefined
        CFI PSPL Undefined
        CFI XSPH Undefined
        CFI XSPL Undefined
        CFI ?RET Concat
        CFI ?BRET_EXT SameValue
        CFI ?RET_HIGH Frame(CFA_SP, 2)
        CFI ?RET_LOW Frame(CFA_SP, 1)
        CFI EndCommon cfiCommon1
        
osal_int_disable    SYMBOL "osal_int_disable"
HalAdcCheckVdd      SYMBOL "HalAdcCheckVdd"
InitBoard           SYMBOL "InitBoard"
HalDriverInit       SYMBOL "HalDriverInit"
osal_nv_init        SYMBOL "osal_nv_init"
ZMacInit            SYMBOL "ZMacInit"
zgInit              SYMBOL "zgInit"
osal_init_system    SYMBOL "osal_init_system"
osal_int_enable     SYMBOL "osal_int_enable"
osal_start_system   SYMBOL "osal_start_system"
osal_nv_item_init   SYMBOL "osal_nv_item_init"
osal_nv_read        SYMBOL "osal_nv_read"
osal_memcmp         SYMBOL "osal_memcmp"
HalFlashRead        SYMBOL "HalFlashRead"
osal_memcpy         SYMBOL "osal_memcpy"
osal_nv_write       SYMBOL "osal_nv_write"
ZMacSetReq          SYMBOL "ZMacSetReq"
osal_rand           SYMBOL "osal_rand"
??HalAdcCheckVdd?relay SYMBOL "?relay", HalAdcCheckVdd
??HalDriverInit?relay SYMBOL "?relay", HalDriverInit
??HalFlashRead?relay SYMBOL "?relay", HalFlashRead
??InitBoard?relay   SYMBOL "?relay", InitBoard
??ZMacInit?relay    SYMBOL "?relay", ZMacInit
??ZMacSetReq?relay  SYMBOL "?relay", ZMacSetReq
??osal_init_system?relay SYMBOL "?relay", osal_init_system
??osal_int_disable?relay SYMBOL "?relay", osal_int_disable
??osal_int_enable?relay SYMBOL "?relay", osal_int_enable
??osal_memcmp?relay SYMBOL "?relay", osal_memcmp
??osal_memcpy?relay SYMBOL "?relay", osal_memcpy
??osal_nv_init?relay SYMBOL "?relay", osal_nv_init
??osal_nv_item_init?relay SYMBOL "?relay", osal_nv_item_init
??osal_nv_read?relay SYMBOL "?relay", osal_nv_read
??osal_nv_write?relay SYMBOL "?relay", osal_nv_write
??osal_rand?relay   SYMBOL "?relay", osal_rand
??osal_start_system?relay SYMBOL "?relay", osal_start_system
??zgInit?relay      SYMBOL "?relay", zgInit
main                SYMBOL "main"
??main?relay        SYMBOL "?relay", main

        EXTERN osal_int_disable
        FUNCTION osal_int_disable,0202H
        ARGFRAME ISTACK, 0, STACK
        ARGFRAME PSTACK, 0, STACK
        ARGFRAME XSTACK, 0, STACK
        ARGFRAME IOVERLAY, 0, STATIC
        ARGFRAME DOVERLAY, 0, STATIC
        EXTERN HalAdcCheckVdd
        FUNCTION HalAdcCheckVdd,0202H
        ARGFRAME ISTACK, 0, STACK
        ARGFRAME PSTACK, 0, STACK
        ARGFRAME XSTACK, 0, STACK
        ARGFRAME IOVERLAY, 0, STATIC
        ARGFRAME DOVERLAY, 0, STATIC
        EXTERN InitBoard
        FUNCTION InitBoard,0202H
        ARGFRAME ISTACK, 0, STACK
        ARGFRAME PSTACK, 0, STACK
        ARGFRAME XSTACK, 0, STACK
        ARGFRAME IOVERLAY, 0, STATIC
        ARGFRAME DOVERLAY, 0, STATIC
        EXTERN HalDriverInit
        FUNCTION HalDriverInit,0202H
        ARGFRAME ISTACK, 0, STACK
        ARGFRAME PSTACK, 0, STACK
        ARGFRAME XSTACK, 0, STACK
        ARGFRAME IOVERLAY, 0, STATIC
        ARGFRAME DOVERLAY, 0, STATIC
        EXTERN osal_nv_init
        FUNCTION osal_nv_init,0202H
        ARGFRAME ISTACK, 0, STACK
        ARGFRAME PSTACK, 0, STACK
        ARGFRAME XSTACK, 0, STACK
        ARGFRAME IOVERLAY, 0, STATIC
        ARGFRAME DOVERLAY, 0, STATIC
        EXTERN ZMacInit
        FUNCTION ZMacInit,0202H
        ARGFRAME ISTACK, 0, STACK
        ARGFRAME PSTACK, 0, STACK
        ARGFRAME XSTACK, 0, STACK
        ARGFRAME IOVERLAY, 0, STATIC
        ARGFRAME DOVERLAY, 0, STATIC
        EXTERN zgInit
        FUNCTION zgInit,0202H
        ARGFRAME ISTACK, 0, STACK
        ARGFRAME PSTACK, 0, STACK
        ARGFRAME XSTACK, 0, STACK
        ARGFRAME IOVERLAY, 0, STATIC
        ARGFRAME DOVERLAY, 0, STATIC
        EXTERN osal_init_system
        FUNCTION osal_init_system,0202H
        ARGFRAME ISTACK, 0, STACK
        ARGFRAME PSTACK, 0, STACK
        ARGFRAME XSTACK, 0, STACK
        ARGFRAME IOVERLAY, 0, STATIC
        ARGFRAME DOVERLAY, 0, STATIC
        EXTERN osal_int_enable
        FUNCTION osal_int_enable,0202H
        ARGFRAME ISTACK, 0, STACK
        ARGFRAME PSTACK, 0, STACK
        ARGFRAME XSTACK, 0, STACK
        ARGFRAME IOVERLAY, 0, STATIC
        ARGFRAME DOVERLAY, 0, STATIC
        EXTERN osal_start_system
        FUNCTION osal_start_system,0202H
        ARGFRAME ISTACK, 0, STACK
        ARGFRAME PSTACK, 0, STACK
        ARGFRAME XSTACK, 0, STACK
        ARGFRAME IOVERLAY, 0, STATIC
        ARGFRAME DOVERLAY, 0, STATIC
        EXTERN osal_nv_item_init
        FUNCTION osal_nv_item_init,0202H
        ARGFRAME ISTACK, 0, STACK
        ARGFRAME PSTACK, 0, STACK
        ARGFRAME XSTACK, 21, STACK
        ARGFRAME IOVERLAY, 0, STATIC
        ARGFRAME DOVERLAY, 0, STATIC
        EXTERN osal_nv_read
        FUNCTION osal_nv_read,0202H
        ARGFRAME ISTACK, 0, STACK
        ARGFRAME PSTACK, 0, STACK
        ARGFRAME XSTACK, 23, STACK
        ARGFRAME IOVERLAY, 0, STATIC
        ARGFRAME DOVERLAY, 0, STATIC
        EXTERN osal_memcmp
        FUNCTION osal_memcmp,0202H
        ARGFRAME ISTACK, 0, STACK
        ARGFRAME PSTACK, 0, STACK
        ARGFRAME XSTACK, 22, STACK
        ARGFRAME IOVERLAY, 0, STATIC
        ARGFRAME DOVERLAY, 0, STATIC
        EXTERN HalFlashRead
        FUNCTION HalFlashRead,0202H
        ARGFRAME ISTACK, 0, STACK
        ARGFRAME PSTACK, 0, STACK
        ARGFRAME XSTACK, 21, STACK
        ARGFRAME IOVERLAY, 0, STATIC
        ARGFRAME DOVERLAY, 0, STATIC
        EXTERN osal_memcpy
        FUNCTION osal_memcpy,0202H
        ARGFRAME ISTACK, 0, STACK
        ARGFRAME PSTACK, 0, STACK
        ARGFRAME XSTACK, 22, STACK
        ARGFRAME IOVERLAY, 0, STATIC
        ARGFRAME DOVERLAY, 0, STATIC
        EXTERN osal_nv_write
        FUNCTION osal_nv_write,0202H
        ARGFRAME ISTACK, 0, STACK
        ARGFRAME PSTACK, 0, STACK
        ARGFRAME XSTACK, 23, STACK
        ARGFRAME IOVERLAY, 0, STATIC
        ARGFRAME DOVERLAY, 0, STATIC
        EXTERN ZMacSetReq
        FUNCTION ZMacSetReq,0202H
        ARGFRAME ISTACK, 0, STACK
        ARGFRAME PSTACK, 0, STACK
        ARGFRAME XSTACK, 19, STACK
        ARGFRAME IOVERLAY, 0, STATIC
        ARGFRAME DOVERLAY, 0, STATIC
        EXTERN osal_rand
        FUNCTION osal_rand,0202H
        ARGFRAME ISTACK, 0, STACK
        ARGFRAME PSTACK, 0, STACK
        ARGFRAME XSTACK, 19, STACK
        ARGFRAME IOVERLAY, 0, STATIC
        ARGFRAME DOVERLAY, 0, STATIC
        EXTERN ??HalAdcCheckVdd?relay
        FUNCTION ??HalAdcCheckVdd?relay,00H
        EXTERN ??HalDriverInit?relay
        FUNCTION ??HalDriverInit?relay,00H
        EXTERN ??HalFlashRead?relay
        FUNCTION ??HalFlashRead?relay,00H
        EXTERN ??InitBoard?relay
        FUNCTION ??InitBoard?relay,00H
        EXTERN ??ZMacInit?relay
        FUNCTION ??ZMacInit?relay,00H
        EXTERN ??ZMacSetReq?relay
        FUNCTION ??ZMacSetReq?relay,00H
        EXTERN ??osal_init_system?relay
        FUNCTION ??osal_init_system?relay,00H
        EXTERN ??osal_int_disable?relay
        FUNCTION ??osal_int_disable?relay,00H
        EXTERN ??osal_int_enable?relay
        FUNCTION ??osal_int_enable?relay,00H
        EXTERN ??osal_memcmp?relay
        FUNCTION ??osal_memcmp?relay,00H
        EXTERN ??osal_memcpy?relay
        FUNCTION ??osal_memcpy?relay,00H
        EXTERN ??osal_nv_init?relay
        FUNCTION ??osal_nv_init?relay,00H
        EXTERN ??osal_nv_item_init?relay
        FUNCTION ??osal_nv_item_init?relay,00H
        EXTERN ??osal_nv_read?relay
        FUNCTION ??osal_nv_read?relay,00H
        EXTERN ??osal_nv_write?relay
        FUNCTION ??osal_nv_write?relay,00H
        EXTERN ??osal_rand?relay
        FUNCTION ??osal_rand?relay,00H
        EXTERN ??osal_start_system?relay
        FUNCTION ??osal_start_system?relay,00H
        EXTERN ??zgInit?relay
        FUNCTION ??zgInit?relay,00H
        EXTERN aExtendedAddress

// D:\Junior College\Zigbee development technology and Practice\Zstack系统移植\ZStack-CC2530-2.5.1a\Projects\zstack\ZMain\TI2530DB\ZMain.c
//    1 #ifndef NONWK
//    2 #include "AF.h"
//    3 #endif
//    4 #include "hal_adc.h"

        ASEGN SFR_AN:DATA:NOROOT,080H
// union <unnamed> volatile __sfr _A_P0
_A_P0:
        DATA8
        DS 1

        ASEGN SFR_AN:DATA:NOROOT,08fH
// unsigned char volatile __sfr P0INP
P0INP:
        DATA8
        DS 1

        ASEGN SFR_AN:DATA:NOROOT,09dH
// unsigned char volatile __sfr SLEEPSTA
SLEEPSTA:
        DATA8
        DS 1

        ASEGN SFR_AN:DATA:NOROOT,09eH
// unsigned char volatile __sfr CLKCONSTA
CLKCONSTA:
        DATA8
        DS 1

        ASEGN SFR_AN:DATA:NOROOT,0a0H
// union <unnamed> volatile __sfr _A_P2
_A_P2:
        DATA8
        DS 1

        ASEGN SFR_AN:DATA:NOROOT,0beH
// unsigned char volatile __sfr SLEEPCMD
SLEEPCMD:
        DATA8
        DS 1

        ASEGN SFR_AN:DATA:NOROOT,0c6H
// unsigned char volatile __sfr CLKCONCMD
CLKCONCMD:
        DATA8
        DS 1

        ASEGN SFR_AN:DATA:NOROOT,0fdH
// unsigned char volatile __sfr P0DIR
P0DIR:
        DATA8
        DS 1

        ASEGN SFR_AN:DATA:NOROOT,0ffH
// unsigned char volatile __sfr P2DIR
P2DIR:
        DATA8
        DS 1
//    5 #include "hal_flash.h"
//    6 #include "hal_lcd.h"
//    7 #include "hal_led.h"
//    8 #include "hal_drivers.h"
//    9 #include "OnBoard.h"
//   10 #include "OSAL.h"
//   11 #include "OSAL_Nv.h"
//   12 #include "ZComDef.h"
//   13 #include "ZMAC.h"
//   14 
//   15 /*********************************************************************
//   16  * LOCAL FUNCTIONS
//   17  */
//   18 
//   19 
//   20 static void zmain_ext_addr( void );
//   21 #if defined ZCL_KEY_ESTABLISH
//   22 static void zmain_cert_init( void );
//   23 #endif
//   24 static void zmain_dev_info( void );
//   25 static void zmain_vdd_check( void );
//   26 
//   27 #ifdef LCD_SUPPORTED
//   28 static void zmain_lcd_init( void );
//   29 #endif
//   30 
//   31 /*********************************************************************
//   32  * @fn      main
//   33  * @brief   First function called after startup.
//   34  * @return  don't care
//   35  */

        RSEG BANKED_CODE:CODE:NOROOT(0)
//   36 int main( void )
main:
        CFI Block cfiBlock0 Using cfiCommon0
        CFI Function main
        CODE
//   37 {
        FUNCALL main, osal_int_disable
        LOCFRAME ISTACK, 0, STACK
        LOCFRAME PSTACK, 0, STACK
        LOCFRAME XSTACK, 0, STACK
        LOCFRAME IOVERLAY, 0, STATIC
        LOCFRAME DOVERLAY, 0, STATIC
        ARGFRAME ISTACK, 0, STACK
        ARGFRAME PSTACK, 0, STACK
        ARGFRAME XSTACK, 0, STACK
        ARGFRAME IOVERLAY, 0, STATIC
        ARGFRAME DOVERLAY, 0, STATIC
        FUNCALL main, HalAdcCheckVdd
        LOCFRAME ISTACK, 0, STACK
        LOCFRAME PSTACK, 0, STACK
        LOCFRAME XSTACK, 0, STACK
        LOCFRAME IOVERLAY, 0, STATIC
        LOCFRAME DOVERLAY, 0, STATIC
        ARGFRAME ISTACK, 0, STACK
        ARGFRAME PSTACK, 0, STACK
        ARGFRAME XSTACK, 0, STACK
        ARGFRAME IOVERLAY, 0, STATIC
        ARGFRAME DOVERLAY, 0, STATIC
        FUNCALL main, InitBoard
        LOCFRAME ISTACK, 0, STACK
        LOCFRAME PSTACK, 0, STACK
        LOCFRAME XSTACK, 0, STACK
        LOCFRAME IOVERLAY, 0, STATIC
        LOCFRAME DOVERLAY, 0, STATIC
        ARGFRAME ISTACK, 0, STACK
        ARGFRAME PSTACK, 0, STACK
        ARGFRAME XSTACK, 0, STACK
        ARGFRAME IOVERLAY, 0, STATIC
        ARGFRAME DOVERLAY, 0, STATIC
        FUNCALL main, HalDriverInit
        LOCFRAME ISTACK, 0, STACK
        LOCFRAME PSTACK, 0, STACK
        LOCFRAME XSTACK, 0, STACK
        LOCFRAME IOVERLAY, 0, STATIC
        LOCFRAME DOVERLAY, 0, STATIC
        ARGFRAME ISTACK, 0, STACK
        ARGFRAME PSTACK, 0, STACK
        ARGFRAME XSTACK, 0, STACK
        ARGFRAME IOVERLAY, 0, STATIC
        ARGFRAME DOVERLAY, 0, STATIC
        FUNCALL main, osal_nv_init
        LOCFRAME ISTACK, 0, STACK
        LOCFRAME PSTACK, 0, STACK
        LOCFRAME XSTACK, 0, STACK
        LOCFRAME IOVERLAY, 0, STATIC
        LOCFRAME DOVERLAY, 0, STATIC
        ARGFRAME ISTACK, 0, STACK
        ARGFRAME PSTACK, 0, STACK
        ARGFRAME XSTACK, 0, STACK
        ARGFRAME IOVERLAY, 0, STATIC
        ARGFRAME DOVERLAY, 0, STATIC
        FUNCALL main, ZMacInit
        LOCFRAME ISTACK, 0, STACK
        LOCFRAME PSTACK, 0, STACK
        LOCFRAME XSTACK, 0, STACK
        LOCFRAME IOVERLAY, 0, STATIC
        LOCFRAME DOVERLAY, 0, STATIC
        ARGFRAME ISTACK, 0, STACK
        ARGFRAME PSTACK, 0, STACK
        ARGFRAME XSTACK, 0, STACK
        ARGFRAME IOVERLAY, 0, STATIC
        ARGFRAME DOVERLAY, 0, STATIC
        FUNCALL main, zmain_ext_addr
        LOCFRAME ISTACK, 0, STACK
        LOCFRAME PSTACK, 0, STACK
        LOCFRAME XSTACK, 0, STACK
        LOCFRAME IOVERLAY, 0, STATIC
        LOCFRAME DOVERLAY, 0, STATIC
        ARGFRAME ISTACK, 0, STACK
        ARGFRAME PSTACK, 0, STACK
        ARGFRAME XSTACK, 0, STACK
        ARGFRAME IOVERLAY, 0, STATIC
        ARGFRAME DOVERLAY, 0, STATIC
        FUNCALL main, zgInit
        LOCFRAME ISTACK, 0, STACK
        LOCFRAME PSTACK, 0, STACK
        LOCFRAME XSTACK, 0, STACK
        LOCFRAME IOVERLAY, 0, STATIC
        LOCFRAME DOVERLAY, 0, STATIC
        ARGFRAME ISTACK, 0, STACK
        ARGFRAME PSTACK, 0, STACK
        ARGFRAME XSTACK, 0, STACK
        ARGFRAME IOVERLAY, 0, STATIC
        ARGFRAME DOVERLAY, 0, STATIC
        FUNCALL main, osal_init_system
        LOCFRAME ISTACK, 0, STACK
        LOCFRAME PSTACK, 0, STACK
        LOCFRAME XSTACK, 0, STACK
        LOCFRAME IOVERLAY, 0, STATIC
        LOCFRAME DOVERLAY, 0, STATIC
        ARGFRAME ISTACK, 0, STACK
        ARGFRAME PSTACK, 0, STACK
        ARGFRAME XSTACK, 0, STACK
        ARGFRAME IOVERLAY, 0, STATIC
        ARGFRAME DOVERLAY, 0, STATIC
        FUNCALL main, osal_int_enable
        LOCFRAME ISTACK, 0, STACK
        LOCFRAME PSTACK, 0, STACK
        LOCFRAME XSTACK, 0, STACK
        LOCFRAME IOVERLAY, 0, STATIC
        LOCFRAME DOVERLAY, 0, STATIC
        ARGFRAME ISTACK, 0, STACK
        ARGFRAME PSTACK, 0, STACK
        ARGFRAME XSTACK, 0, STACK
        ARGFRAME IOVERLAY, 0, STATIC
        ARGFRAME DOVERLAY, 0, STATIC
        FUNCALL main, InitBoard
        LOCFRAME ISTACK, 0, STACK
        LOCFRAME PSTACK, 0, STACK
        LOCFRAME XSTACK, 0, STACK
        LOCFRAME IOVERLAY, 0, STATIC
        LOCFRAME DOVERLAY, 0, STATIC
        ARGFRAME ISTACK, 0, STACK
        ARGFRAME PSTACK, 0, STACK
        ARGFRAME XSTACK, 0, STACK
        ARGFRAME IOVERLAY, 0, STATIC
        ARGFRAME DOVERLAY, 0, STATIC
        FUNCALL main, osal_start_system
        LOCFRAME ISTACK, 0, STACK
        LOCFRAME PSTACK, 0, STACK
        LOCFRAME XSTACK, 0, STACK
        LOCFRAME IOVERLAY, 0, STATIC
        LOCFRAME DOVERLAY, 0, STATIC
        ARGFRAME ISTACK, 0, STACK
        ARGFRAME PSTACK, 0, STACK
        ARGFRAME XSTACK, 0, STACK
        ARGFRAME IOVERLAY, 0, STATIC
        ARGFRAME DOVERLAY, 0, STATIC
        ; Auto size: 0
//   38 
//   39 
//   40 
//   41   // Turn off interrupts
//   42   osal_int_disable( INTS_ALL );
        ; Setup parameters for call to function osal_int_disable
        MOV     R1,#-0x1
        LCALL   ??osal_int_disable?relay
//   43 
//   44   // Initialization for board related stuff such as LEDs
//   45   HAL_BOARD_INIT();
        ANL     0xbe,#0xfb
??main_0:
        MOV     A,0x9d
        MOV     C,0xE0 /* A   */.6
        JNC     ??main_0
        NOP
        MOV     R0,#-0x8
        MOV     R1,#0x1
??main_1:
        NOP
        MOV     A,R0
        ADD     A,#-0x1
        DEC     R0
        MOV     A,R1
        ADDC    A,#-0x1
        MOV     R1,A
        MOV     A,R0
        ORL     A,R1
        JNZ     ??main_1
        MOV     0xc6,#0x0
??main_2:
        MOV     A,0x9e
        JNZ     ??main_2
        ORL     0xbe,#0x4
        MOV     DPTR,#0x6270
        MOV     A,#0x8
        MOVX    @DPTR,A
        SETB    0x80.0
        ORL     0xfd,#0x1
        SETB    0xa0.0
        ORL     0xff,#0x1
        ORL     0x8f,#0x1
//   46 
//   47   // Make sure supply voltage is high enough to run
//   48   zmain_vdd_check();
        MOV     R6,#0x10
??main_3:
        ; Setup parameters for call to function HalAdcCheckVdd
        MOV     R1,#0x4a
        LCALL   ??HalAdcCheckVdd?relay
        MOV     A,R1
        JZ      ??main_3
        DEC     R6
        MOV     A,R6
        JNZ     ??main_3
//   49 
//   50   // Initialize board I/O
//   51   InitBoard( OB_COLD );
        ; Setup parameters for call to function InitBoard
        MOV     R1,#0x0
        LCALL   ??InitBoard?relay
//   52   // Initialze HAL drivers
//   53   HalDriverInit();                       //存在灯闪烁////////////////////////////////////////////////////////////可以
        ; Setup parameters for call to function HalDriverInit
        LCALL   ??HalDriverInit?relay
//   54   // Initialize NV System                                    ///////////////////////////////////////////////////不行
//   55   osal_nv_init( NULL );                  //存在灯闪烁
        ; Setup parameters for call to function osal_nv_init
        MOV     R2,#0x0
        MOV     R3,#0x0
        LCALL   ??osal_nv_init?relay
//   56 
//   57   // Initialize the MAC
//   58   ZMacInit();
        ; Setup parameters for call to function ZMacInit
        LCALL   ??ZMacInit?relay
//   59 
//   60   // Determine the extended address
//   61   zmain_ext_addr();
        ; Setup parameters for call to function zmain_ext_addr
        LCALL   ??zmain_ext_addr?relay
//   62 
//   63 #if defined ZCL_KEY_ESTABLISH
//   64   // Initialize the Certicom certificate information.
//   65   zmain_cert_init();
//   66 #endif
//   67 
//   68   // Initialize basic NV items
//   69   zgInit();
        ; Setup parameters for call to function zgInit
        LCALL   ??zgInit?relay
//   70 
//   71 #ifndef NONWK
//   72   // Since the AF isn't a task, call it's initialization routine
//   73   afInit();
//   74 #endif
//   75 
//   76   // Initialize the operating system
//   77   osal_init_system();
        ; Setup parameters for call to function osal_init_system
        LCALL   ??osal_init_system?relay
//   78 
//   79   // Allow interrupts
//   80   osal_int_enable( INTS_ALL );
        ; Setup parameters for call to function osal_int_enable
        MOV     R1,#-0x1
        LCALL   ??osal_int_enable?relay
//   81 
//   82   // Final board initialization
//   83   InitBoard( OB_READY );
        ; Setup parameters for call to function InitBoard
        MOV     R1,#0x2
        LCALL   ??InitBoard?relay
//   84 
//   85   // Display information about this device
//   86   zmain_dev_info();
//   87 
//   88   /* Display the device info on the LCD */
//   89 #ifdef LCD_SUPPORTED
//   90   zmain_lcd_init();
//   91 #endif
//   92 
//   93 #ifdef WDT_IN_PM1
//   94   /* If WDT is used, this is a good place to enable it. */
//   95   WatchDogEnable( WDTIMX );
//   96 #endif
//   97   osal_start_system(); // No Return from here
        ; Setup parameters for call to function osal_start_system
        LCALL   ??osal_start_system?relay
//   98 
//   99   return 0;  // Shouldn't get here.
        MOV     R2,#0x0
        MOV     R3,#0x0
        LJMP    ?BRET
        CFI EndBlock cfiBlock0
        REQUIRE SLEEPCMD
        REQUIRE SLEEPSTA
        REQUIRE CLKCONCMD
        REQUIRE CLKCONSTA
        REQUIRE _A_P0
        REQUIRE P0DIR
        REQUIRE _A_P2
        REQUIRE P2DIR
        REQUIRE P0INP
//  100 } // main()
//  101 
//  102 /*********************************************************************
//  103  * @fn      zmain_vdd_check
//  104  * @brief   Check if the Vdd is OK to run the processor.
//  105  * @return  Return if Vdd is ok; otherwise, flash LED, then reset
//  106  *********************************************************************/
//  107 static void zmain_vdd_check( void )
//  108 {
//  109   uint8 cnt = 16;
//  110 
//  111   do {
//  112     while (!HalAdcCheckVdd(VDD_MIN_RUN));
//  113   } while (--cnt);
//  114 }
//  115 
//  116 /**************************************************************************************************
//  117  * @fn          zmain_ext_addr
//  118  *
//  119  * @brief       Execute a prioritized search for a valid extended address and write the results
//  120  *              into the OSAL NV system for use by the system. Temporary address not saved to NV.
//  121  *
//  122  * input parameters
//  123  *
//  124  * None.
//  125  *
//  126  * output parameters
//  127  *
//  128  * None.
//  129  *
//  130  * @return      None.
//  131  **************************************************************************************************
//  132  */

        RSEG BANKED_CODE:CODE:NOROOT(0)
//  133 static void zmain_ext_addr(void)
zmain_ext_addr:
        CFI Block cfiBlock1 Using cfiCommon0
        CFI Function zmain_ext_addr
        CODE
//  134 {
        FUNCALL zmain_ext_addr, osal_nv_item_init
        LOCFRAME ISTACK, 0, STACK
        LOCFRAME PSTACK, 0, STACK
        LOCFRAME XSTACK, 21, STACK
        LOCFRAME IOVERLAY, 0, STATIC
        LOCFRAME DOVERLAY, 0, STATIC
        ARGFRAME ISTACK, 0, STACK
        ARGFRAME PSTACK, 0, STACK
        ARGFRAME XSTACK, 21, STACK
        ARGFRAME IOVERLAY, 0, STATIC
        ARGFRAME DOVERLAY, 0, STATIC
        FUNCALL zmain_ext_addr, osal_nv_read
        LOCFRAME ISTACK, 0, STACK
        LOCFRAME PSTACK, 0, STACK
        LOCFRAME XSTACK, 23, STACK
        LOCFRAME IOVERLAY, 0, STATIC
        LOCFRAME DOVERLAY, 0, STATIC
        ARGFRAME ISTACK, 0, STACK
        ARGFRAME PSTACK, 0, STACK
        ARGFRAME XSTACK, 23, STACK
        ARGFRAME IOVERLAY, 0, STATIC
        ARGFRAME DOVERLAY, 0, STATIC
        FUNCALL zmain_ext_addr, osal_memcmp
        LOCFRAME ISTACK, 0, STACK
        LOCFRAME PSTACK, 0, STACK
        LOCFRAME XSTACK, 22, STACK
        LOCFRAME IOVERLAY, 0, STATIC
        LOCFRAME DOVERLAY, 0, STATIC
        ARGFRAME ISTACK, 0, STACK
        ARGFRAME PSTACK, 0, STACK
        ARGFRAME XSTACK, 22, STACK
        ARGFRAME IOVERLAY, 0, STATIC
        ARGFRAME DOVERLAY, 0, STATIC
        FUNCALL zmain_ext_addr, HalFlashRead
        LOCFRAME ISTACK, 0, STACK
        LOCFRAME PSTACK, 0, STACK
        LOCFRAME XSTACK, 21, STACK
        LOCFRAME IOVERLAY, 0, STATIC
        LOCFRAME DOVERLAY, 0, STATIC
        ARGFRAME ISTACK, 0, STACK
        ARGFRAME PSTACK, 0, STACK
        ARGFRAME XSTACK, 21, STACK
        ARGFRAME IOVERLAY, 0, STATIC
        ARGFRAME DOVERLAY, 0, STATIC
        FUNCALL zmain_ext_addr, osal_memcmp
        LOCFRAME ISTACK, 0, STACK
        LOCFRAME PSTACK, 0, STACK
        LOCFRAME XSTACK, 22, STACK
        LOCFRAME IOVERLAY, 0, STATIC
        LOCFRAME DOVERLAY, 0, STATIC
        ARGFRAME ISTACK, 0, STACK
        ARGFRAME PSTACK, 0, STACK
        ARGFRAME XSTACK, 22, STACK
        ARGFRAME IOVERLAY, 0, STATIC
        ARGFRAME DOVERLAY, 0, STATIC
        FUNCALL zmain_ext_addr, osal_memcmp
        LOCFRAME ISTACK, 0, STACK
        LOCFRAME PSTACK, 0, STACK
        LOCFRAME XSTACK, 22, STACK
        LOCFRAME IOVERLAY, 0, STATIC
        LOCFRAME DOVERLAY, 0, STATIC
        ARGFRAME ISTACK, 0, STACK
        ARGFRAME PSTACK, 0, STACK
        ARGFRAME XSTACK, 22, STACK
        ARGFRAME IOVERLAY, 0, STATIC
        ARGFRAME DOVERLAY, 0, STATIC
        FUNCALL zmain_ext_addr, osal_memcpy
        LOCFRAME ISTACK, 0, STACK
        LOCFRAME PSTACK, 0, STACK
        LOCFRAME XSTACK, 22, STACK
        LOCFRAME IOVERLAY, 0, STATIC
        LOCFRAME DOVERLAY, 0, STATIC
        ARGFRAME ISTACK, 0, STACK
        ARGFRAME PSTACK, 0, STACK
        ARGFRAME XSTACK, 22, STACK
        ARGFRAME IOVERLAY, 0, STATIC
        ARGFRAME DOVERLAY, 0, STATIC
        FUNCALL zmain_ext_addr, osal_nv_write
        LOCFRAME ISTACK, 0, STACK
        LOCFRAME PSTACK, 0, STACK
        LOCFRAME XSTACK, 23, STACK
        LOCFRAME IOVERLAY, 0, STATIC
        LOCFRAME DOVERLAY, 0, STATIC
        ARGFRAME ISTACK, 0, STACK
        ARGFRAME PSTACK, 0, STACK
        ARGFRAME XSTACK, 23, STACK
        ARGFRAME IOVERLAY, 0, STATIC
        ARGFRAME DOVERLAY, 0, STATIC
        FUNCALL zmain_ext_addr, ZMacSetReq
        LOCFRAME ISTACK, 0, STACK
        LOCFRAME PSTACK, 0, STACK
        LOCFRAME XSTACK, 19, STACK
        LOCFRAME IOVERLAY, 0, STATIC
        LOCFRAME DOVERLAY, 0, STATIC
        ARGFRAME ISTACK, 0, STACK
        ARGFRAME PSTACK, 0, STACK
        ARGFRAME XSTACK, 19, STACK
        ARGFRAME IOVERLAY, 0, STATIC
        ARGFRAME DOVERLAY, 0, STATIC
        FUNCALL zmain_ext_addr, osal_rand
        LOCFRAME ISTACK, 0, STACK
        LOCFRAME PSTACK, 0, STACK
        LOCFRAME XSTACK, 19, STACK
        LOCFRAME IOVERLAY, 0, STATIC
        LOCFRAME DOVERLAY, 0, STATIC
        ARGFRAME ISTACK, 0, STACK
        ARGFRAME PSTACK, 0, STACK
        ARGFRAME XSTACK, 19, STACK
        ARGFRAME IOVERLAY, 0, STATIC
        ARGFRAME DOVERLAY, 0, STATIC
        MOV     A,#-0xb
        LCALL   ?BANKED_ENTER_XDATA
        CFI DPH0 load(1, XDATA, add(CFA_XSP16, literal(-1)))
        CFI DPL0 load(1, XDATA, add(CFA_XSP16, literal(-2)))
        CFI ?BRET_EXT load(1, XDATA, add(CFA_XSP16, literal(-3)))
        CFI ?RET_HIGH load(1, XDATA, add(CFA_XSP16, literal(-4)))
        CFI ?RET_LOW load(1, XDATA, add(CFA_XSP16, literal(-5)))
        CFI R7 load(1, XDATA, add(CFA_XSP16, literal(-6)))
        CFI V2 load(1, XDATA, add(CFA_XSP16, literal(-7)))
        CFI V1 load(1, XDATA, add(CFA_XSP16, literal(-8)))
        CFI V0 load(1, XDATA, add(CFA_XSP16, literal(-9)))
        CFI VB load(1, XDATA, add(CFA_XSP16, literal(-10)))
        CFI R6 load(1, XDATA, add(CFA_XSP16, literal(-11)))
        CFI CFA_SP SP+0
        CFI CFA_XSP16 add(XSP16, 11)
        ; Saved register size: 11
        ; Auto size: 8
        MOV     A,#-0x8
        LCALL   ?ALLOC_XSTACK8
        CFI CFA_XSP16 add(XSP16, 19)
//  135   uint8 nullAddr[Z_EXTADDR_LEN] = {0xFF, 0xFF, 0xFF, 0xFF, 0xFF, 0xFF, 0xFF, 0xFF};
        MOV     DPL,?XSP + 0
        MOV     DPH,?XSP + 1
        MOV     R4,DPL
        MOV     R5,DPH
        MOV     DPH,#(`?<Constant {255, 255, 255, 255, 255, 255, 255,` >> 8) & 0xff
        MOV     DPL,#`?<Constant {255, 255, 255, 255, 255, 255, 255,` & 0xff
        MOV     A,#0x8
        LCALL   ?MOVE_LONG8_XDATA_XDATA
//  136   uint8 writeNV = TRUE;
//  137 
//  138   // First check whether a non-erased extended address exists in the OSAL NV.
//  139   if ((SUCCESS != osal_nv_item_init(ZCD_NV_EXTADDR, Z_EXTADDR_LEN, NULL))  ||
//  140       (SUCCESS != osal_nv_read(ZCD_NV_EXTADDR, 0, Z_EXTADDR_LEN, aExtendedAddress)) ||
//  141       (osal_memcmp(aExtendedAddress, nullAddr, Z_EXTADDR_LEN)))
        ; Setup parameters for call to function osal_nv_item_init
        MOV     ?V0 + 0,A
        MOV     ?V0 + 1,A
        MOV     R0,#?V0 + 0
        LCALL   ?PUSH_XSTACK_I_TWO
        CFI CFA_XSP16 add(XSP16, 21)
        MOV     R4,#0x8
        MOV     R5,#0x0
        MOV     R2,#0x1
        MOV     R3,#0x0
        LCALL   ??osal_nv_item_init?relay
        MOV     A,#0x2
        LCALL   ?DEALLOC_XSTACK8
        CFI CFA_XSP16 add(XSP16, 19)
        MOV     A,R1
        JNZ     ??zmain_ext_addr_0
        ; Setup parameters for call to function osal_nv_read
        MOV     ?V0 + 0,#aExtendedAddress & 0xff
        MOV     ?V0 + 1,#(aExtendedAddress >> 8) & 0xff
        MOV     R0,#?V0 + 0
        LCALL   ?PUSH_XSTACK_I_TWO
        CFI CFA_XSP16 add(XSP16, 21)
        MOV     ?V0 + 0,#0x8
        MOV     ?V0 + 1,#0x0
        MOV     R0,#?V0 + 0
        LCALL   ?PUSH_XSTACK_I_TWO
        CFI CFA_XSP16 add(XSP16, 23)
        MOV     R4,#0x0
        MOV     R5,#0x0
        MOV     R2,#0x1
        MOV     R3,#0x0
        LCALL   ??osal_nv_read?relay
        MOV     A,#0x4
        LCALL   ?DEALLOC_XSTACK8
        CFI CFA_XSP16 add(XSP16, 19)
        MOV     A,R1
        JNZ     ??zmain_ext_addr_0
        ; Setup parameters for call to function osal_memcmp
        MOV     DPL,?XSP + 0
        MOV     DPH,?XSP + 1
        MOV     R1,DPL
        MOV     R2,DPH
        MOV     ?V0 + 0,R1
        MOV     ?V0 + 1,R2
        MOV     ?V0 + 2,#0x0
        MOV     R0,#?V0 + 0
        LCALL   ?PUSH_XSTACK_I_THREE
        CFI CFA_XSP16 add(XSP16, 22)
        MOV     R4,#0x8
        MOV     R5,#0x0
        MOV     R1,#aExtendedAddress & 0xff
        MOV     R2,#(aExtendedAddress >> 8) & 0xff
        MOV     R3,#0x0
        LCALL   ??osal_memcmp?relay
        MOV     A,#0x3
        LCALL   ?DEALLOC_XSTACK8
        CFI CFA_XSP16 add(XSP16, 19)
        MOV     A,R1
        JNZ     $+5
        LJMP    ??zmain_ext_addr_1 & 0xFFFF
//  142   {
//  143     // Attempt to read the extended address from the location on the lock bits page
//  144     // where the programming tools know to reserve it.
//  145     HalFlashRead(HAL_FLASH_IEEE_PAGE, HAL_FLASH_IEEE_OSET, aExtendedAddress, Z_EXTADDR_LEN);
??zmain_ext_addr_0:
        ; Setup parameters for call to function HalFlashRead
        MOV     ?V0 + 0,#0x8
        MOV     ?V0 + 1,#0x0
        MOV     R0,#?V0 + 0
        LCALL   ?PUSH_XSTACK_I_TWO
        CFI CFA_XSP16 add(XSP16, 21)
        MOV     R4,#aExtendedAddress & 0xff
        MOV     R5,#(aExtendedAddress >> 8) & 0xff
        MOV     R2,#-0x18
        MOV     R3,#0x7
        MOV     R1,#0x7f
        LCALL   ??HalFlashRead?relay
        MOV     A,#0x2
        LCALL   ?DEALLOC_XSTACK8
        CFI CFA_XSP16 add(XSP16, 19)
//  146 
//  147     if (osal_memcmp(aExtendedAddress, nullAddr, Z_EXTADDR_LEN))
        ; Setup parameters for call to function osal_memcmp
        MOV     DPL,?XSP + 0
        MOV     DPH,?XSP + 1
        MOV     R1,DPL
        MOV     R2,DPH
        MOV     ?V0 + 0,R1
        MOV     ?V0 + 1,R2
        MOV     ?V0 + 2,#0x0
        MOV     R0,#?V0 + 0
        LCALL   ?PUSH_XSTACK_I_THREE
        CFI CFA_XSP16 add(XSP16, 22)
        MOV     R4,#0x8
        MOV     R5,#0x0
        MOV     R1,#aExtendedAddress & 0xff
        MOV     R2,#(aExtendedAddress >> 8) & 0xff
        MOV     R3,#0x0
        LCALL   ??osal_memcmp?relay
        MOV     A,#0x3
        LCALL   ?DEALLOC_XSTACK8
        CFI CFA_XSP16 add(XSP16, 19)
        MOV     A,R1
        JZ      ??zmain_ext_addr_2
//  148     {
//  149       // Attempt to read the extended address from the designated location in the Info Page.
//  150       if (!osal_memcmp((uint8 *)(P_INFOPAGE+HAL_INFOP_IEEE_OSET), nullAddr, Z_EXTADDR_LEN))
        ; Setup parameters for call to function osal_memcmp
        MOV     R0,#?V0 + 0
        LCALL   ?PUSH_XSTACK_I_THREE
        CFI CFA_XSP16 add(XSP16, 22)
        MOV     R4,#0x8
        MOV     R5,#0x0
        MOV     R1,#0xc
        MOV     R2,#0x78
        MOV     R3,#0x0
        LCALL   ??osal_memcmp?relay
        MOV     A,#0x3
        LCALL   ?DEALLOC_XSTACK8
        CFI CFA_XSP16 add(XSP16, 19)
        MOV     A,R1
        JNZ     ??zmain_ext_addr_3
//  151       {
//  152         osal_memcpy(aExtendedAddress, (uint8 *)(P_INFOPAGE+HAL_INFOP_IEEE_OSET), Z_EXTADDR_LEN);
        ; Setup parameters for call to function osal_memcpy
        MOV     ?V0 + 0,#0xc
        MOV     ?V0 + 1,#0x78
        MOV     R0,#?V0 + 0
        LCALL   ?PUSH_XSTACK_I_THREE
        CFI CFA_XSP16 add(XSP16, 22)
        MOV     R4,#0x8
        MOV     R5,#0x0
        MOV     R2,#aExtendedAddress & 0xff
        MOV     R3,#(aExtendedAddress >> 8) & 0xff
        LCALL   ??osal_memcpy?relay
        MOV     A,#0x3
        LCALL   ?DEALLOC_XSTACK8
        CFI CFA_XSP16 add(XSP16, 19)
//  153       }
//  154       else  // No valid extended address was found.
//  155       {
//  156         uint8 idx;
//  157 
//  158 #if !defined ( NV_RESTORE )
//  159         writeNV = FALSE;  // Make this a temporary IEEE address
//  160 #endif
//  161 
//  162         /* Attempt to create a sufficiently random extended address for expediency.
//  163          * Note: this is only valid/legal in a test environment and
//  164          *       must never be used for a commercial product.
//  165          */
//  166         for (idx = 0; idx < (Z_EXTADDR_LEN - 2);)
//  167         {
//  168           uint16 randy = osal_rand();
//  169           aExtendedAddress[idx++] = LO_UINT16(randy);
//  170           aExtendedAddress[idx++] = HI_UINT16(randy);
//  171         }
//  172         // Next-to-MSB identifies ZigBee devicetype.
//  173 #if ZG_BUILD_COORDINATOR_TYPE && !ZG_BUILD_JOINING_TYPE
//  174         aExtendedAddress[idx++] = 0x10;
//  175 #elif ZG_BUILD_RTRONLY_TYPE
//  176         aExtendedAddress[idx++] = 0x20;
//  177 #else
//  178         aExtendedAddress[idx++] = 0x30;
//  179 #endif
//  180         // MSB has historical signficance.
//  181         aExtendedAddress[idx] = 0xF8;
//  182       }
//  183     }
//  184 
//  185     if (writeNV)
//  186     {
//  187       (void)osal_nv_write(ZCD_NV_EXTADDR, 0, Z_EXTADDR_LEN, aExtendedAddress);
??zmain_ext_addr_2:
        ; Setup parameters for call to function osal_nv_write
        MOV     ?V0 + 0,#aExtendedAddress & 0xff
        MOV     ?V0 + 1,#(aExtendedAddress >> 8) & 0xff
        MOV     R0,#?V0 + 0
        LCALL   ?PUSH_XSTACK_I_TWO
        CFI CFA_XSP16 add(XSP16, 21)
        MOV     ?V0 + 0,#0x8
        MOV     ?V0 + 1,#0x0
        MOV     R0,#?V0 + 0
        LCALL   ?PUSH_XSTACK_I_TWO
        CFI CFA_XSP16 add(XSP16, 23)
        MOV     R4,#0x0
        MOV     R5,#0x0
        MOV     R2,#0x1
        MOV     R3,#0x0
        LCALL   ??osal_nv_write?relay
        MOV     A,#0x4
        LCALL   ?DEALLOC_XSTACK8
        CFI CFA_XSP16 add(XSP16, 19)
//  188     }
//  189   }
//  190 
//  191   // Set the MAC PIB extended address according to results from above.
//  192   (void)ZMacSetReq(MAC_EXTENDED_ADDRESS, aExtendedAddress);
??zmain_ext_addr_1:
        ; Setup parameters for call to function ZMacSetReq
        MOV     R2,#aExtendedAddress & 0xff
        MOV     R3,#(aExtendedAddress >> 8) & 0xff
        MOV     R1,#-0x1e
        LCALL   ??ZMacSetReq?relay
//  193 }
        MOV     A,#0x8
        LCALL   ?DEALLOC_XSTACK8
        CFI CFA_XSP16 add(XSP16, 11)
        MOV     R7,#0x3
        LJMP    ?BANKED_LEAVE_XDATA
        CFI CFA_XSP16 add(XSP16, 19)
??zmain_ext_addr_3:
        MOV     R6,#0x0
??zmain_ext_addr_4:
        ; Setup parameters for call to function osal_rand
        LCALL   ??osal_rand?relay
        MOV     ?V0 + 0,R2
        MOV     R0,?V0 + 0
        LCALL   ?Subroutine0 & 0xFFFF
??CrossCallReturnLabel_0:
        MOV     A,R0
        MOVX    @DPTR,A
        INC     R6
        LCALL   ?Subroutine0 & 0xFFFF
??CrossCallReturnLabel_1:
        MOV     A,R3
        MOVX    @DPTR,A
        INC     R6
        MOV     A,R6
        CLR     C
        SUBB    A,#0x6
        JC      ??zmain_ext_addr_4
        LCALL   ?Subroutine0 & 0xFFFF
??CrossCallReturnLabel_2:
        MOV     A,#0x10
        MOVX    @DPTR,A
        MOV     A,#0x1
        ADD     A,R6
        MOV     R0,A
        MOV     A,#aExtendedAddress & 0xff
        ADD     A,R0
        MOV     DPL,A
        MOV     A,#(aExtendedAddress >> 8) & 0xff
        ADDC    A,#0x0
        MOV     DPH,A
        MOV     A,#-0x8
        MOVX    @DPTR,A
        SJMP    ??zmain_ext_addr_1
        CFI EndBlock cfiBlock1

        RSEG BANKED_CODE:CODE:NOROOT(0)
?Subroutine0:
        CFI Block cfiCond2 Using cfiCommon0
        CFI NoFunction
        CFI Conditional ??CrossCallReturnLabel_0
        CFI R6 load(1, XDATA, add(CFA_XSP16, literal(-11)))
        CFI VB load(1, XDATA, add(CFA_XSP16, literal(-10)))
        CFI V0 load(1, XDATA, add(CFA_XSP16, literal(-9)))
        CFI V1 load(1, XDATA, add(CFA_XSP16, literal(-8)))
        CFI V2 load(1, XDATA, add(CFA_XSP16, literal(-7)))
        CFI R7 load(1, XDATA, add(CFA_XSP16, literal(-6)))
        CFI ?RET_LOW load(1, XDATA, add(CFA_XSP16, literal(-5)))
        CFI ?RET_HIGH load(1, XDATA, add(CFA_XSP16, literal(-4)))
        CFI ?BRET_EXT load(1, XDATA, add(CFA_XSP16, literal(-3)))
        CFI DPL0 load(1, XDATA, add(CFA_XSP16, literal(-2)))
        CFI DPH0 load(1, XDATA, add(CFA_XSP16, literal(-1)))
        CFI CFA_SP SP+0
        CFI CFA_XSP16 add(XSP16, 19)
        CFI Block cfiCond3 Using cfiCommon0
        CFI (cfiCond3) NoFunction
        CFI (cfiCond3) Conditional ??CrossCallReturnLabel_1
        CFI (cfiCond3) R6 load(1, XDATA, add(CFA_XSP16, literal(-11)))
        CFI (cfiCond3) VB load(1, XDATA, add(CFA_XSP16, literal(-10)))
        CFI (cfiCond3) V0 load(1, XDATA, add(CFA_XSP16, literal(-9)))
        CFI (cfiCond3) V1 load(1, XDATA, add(CFA_XSP16, literal(-8)))
        CFI (cfiCond3) V2 load(1, XDATA, add(CFA_XSP16, literal(-7)))
        CFI (cfiCond3) R7 load(1, XDATA, add(CFA_XSP16, literal(-6)))
        CFI (cfiCond3) ?RET_LOW load(1, XDATA, add(CFA_XSP16, literal(-5)))
        CFI (cfiCond3) ?RET_HIGH load(1, XDATA, add(CFA_XSP16, literal(-4)))
        CFI (cfiCond3) ?BRET_EXT load(1, XDATA, add(CFA_XSP16, literal(-3)))
        CFI (cfiCond3) DPL0 load(1, XDATA, add(CFA_XSP16, literal(-2)))
        CFI (cfiCond3) DPH0 load(1, XDATA, add(CFA_XSP16, literal(-1)))
        CFI (cfiCond3) CFA_SP SP+0
        CFI (cfiCond3) CFA_XSP16 add(XSP16, 19)
        CFI Block cfiCond4 Using cfiCommon0
        CFI (cfiCond4) NoFunction
        CFI (cfiCond4) Conditional ??CrossCallReturnLabel_2
        CFI (cfiCond4) R6 load(1, XDATA, add(CFA_XSP16, literal(-11)))
        CFI (cfiCond4) VB load(1, XDATA, add(CFA_XSP16, literal(-10)))
        CFI (cfiCond4) V0 load(1, XDATA, add(CFA_XSP16, literal(-9)))
        CFI (cfiCond4) V1 load(1, XDATA, add(CFA_XSP16, literal(-8)))
        CFI (cfiCond4) V2 load(1, XDATA, add(CFA_XSP16, literal(-7)))
        CFI (cfiCond4) R7 load(1, XDATA, add(CFA_XSP16, literal(-6)))
        CFI (cfiCond4) ?RET_LOW load(1, XDATA, add(CFA_XSP16, literal(-5)))
        CFI (cfiCond4) ?RET_HIGH load(1, XDATA, add(CFA_XSP16, literal(-4)))
        CFI (cfiCond4) ?BRET_EXT load(1, XDATA, add(CFA_XSP16, literal(-3)))
        CFI (cfiCond4) DPL0 load(1, XDATA, add(CFA_XSP16, literal(-2)))
        CFI (cfiCond4) DPH0 load(1, XDATA, add(CFA_XSP16, literal(-1)))
        CFI (cfiCond4) CFA_SP SP+0
        CFI (cfiCond4) CFA_XSP16 add(XSP16, 19)
        CFI Block cfiPicker5 Using cfiCommon1
        CFI (cfiPicker5) NoFunction
        CFI (cfiPicker5) Picker
        MOV     ?V0 + 0,R6
        MOV     A,#aExtendedAddress & 0xff
        ADD     A,?V0 + 0
        MOV     DPL,A
        MOV     A,#(aExtendedAddress >> 8) & 0xff
        ADDC    A,#0x0
        MOV     DPH,A
        RET
        CFI EndBlock cfiCond2
        CFI EndBlock cfiCond3
        CFI EndBlock cfiCond4
        CFI EndBlock cfiPicker5

        RSEG BANK_RELAYS:CODE:REORDER:NOROOT(0)
??main?relay:
        LCALL   ?BDISPATCH
        DATA
        DC24    main

        RSEG BANK_RELAYS:CODE:REORDER:NOROOT(0)
??zmain_ext_addr?relay:
        LCALL   ?BDISPATCH
        DATA
        DC24    zmain_ext_addr

        RSEG XDATA_ROM_C:CONST:REORDER:NOROOT(0)
        DATA8
`?<Constant {255, 255, 255, 255, 255, 255, 255,`:
        DB 255
        DB 255
        DB 255
        DB 255
        DB 255
        DB 255
        DB 255
        DB 255

        END
//  194 
//  195 #if defined ZCL_KEY_ESTABLISH
//  196 /**************************************************************************************************
//  197  * @fn          zmain_cert_init
//  198  *
//  199  * @brief       Initialize the Certicom certificate information.
//  200  *
//  201  * input parameters
//  202  *
//  203  * None.
//  204  *
//  205  * output parameters
//  206  *
//  207  * None.
//  208  *
//  209  * @return      None.
//  210  **************************************************************************************************
//  211  */
//  212 static void zmain_cert_init(void)
//  213 {
//  214   uint8 certData[ZCL_KE_IMPLICIT_CERTIFICATE_LEN];
//  215   uint8 nullData[ZCL_KE_IMPLICIT_CERTIFICATE_LEN] = {
//  216     0xFF, 0xFF, 0xFF, 0xFF, 0xFF, 0xFF, 0xFF, 0xFF,
//  217     0xFF, 0xFF, 0xFF, 0xFF, 0xFF, 0xFF, 0xFF, 0xFF,
//  218     0xFF, 0xFF, 0xFF, 0xFF, 0xFF, 0xFF, 0xFF, 0xFF,
//  219     0xFF, 0xFF, 0xFF, 0xFF, 0xFF, 0xFF, 0xFF, 0xFF,
//  220     0xFF, 0xFF, 0xFF, 0xFF, 0xFF, 0xFF, 0xFF, 0xFF,
//  221     0xFF, 0xFF, 0xFF, 0xFF, 0xFF, 0xFF, 0xFF, 0xFF
//  222   };
//  223 
//  224   (void)osal_nv_item_init(ZCD_NV_IMPLICIT_CERTIFICATE, ZCL_KE_IMPLICIT_CERTIFICATE_LEN, NULL);
//  225   (void)osal_nv_item_init(ZCD_NV_DEVICE_PRIVATE_KEY, ZCL_KE_DEVICE_PRIVATE_KEY_LEN, NULL);
//  226 
//  227   // First check whether non-null certificate data exists in the OSAL NV. To save on code space,
//  228   // just use the ZCD_NV_CA_PUBLIC_KEY as the bellwether for all three.
//  229   if ((SUCCESS != osal_nv_item_init(ZCD_NV_CA_PUBLIC_KEY, ZCL_KE_CA_PUBLIC_KEY_LEN, NULL))    ||
//  230       (SUCCESS != osal_nv_read(ZCD_NV_CA_PUBLIC_KEY, 0, ZCL_KE_CA_PUBLIC_KEY_LEN, certData))  ||
//  231       (osal_memcmp(certData, nullData, ZCL_KE_CA_PUBLIC_KEY_LEN)))
//  232   {
//  233     // Attempt to read the certificate data from its corresponding location on the lock bits page.
//  234     HalFlashRead(HAL_FLASH_IEEE_PAGE, HAL_FLASH_CA_PUBLIC_KEY_OSET, certData,
//  235                                          ZCL_KE_CA_PUBLIC_KEY_LEN);
//  236     // If the certificate data is not NULL, use it to update the corresponding NV items.
//  237     if (!osal_memcmp(certData, nullData, ZCL_KE_CA_PUBLIC_KEY_LEN))
//  238     {
//  239       (void)osal_nv_write(ZCD_NV_CA_PUBLIC_KEY, 0, ZCL_KE_CA_PUBLIC_KEY_LEN, certData);
//  240       HalFlashRead(HAL_FLASH_IEEE_PAGE, HAL_FLASH_IMPLICIT_CERT_OSET, certData,
//  241                                            ZCL_KE_IMPLICIT_CERTIFICATE_LEN);
//  242       (void)osal_nv_write(ZCD_NV_IMPLICIT_CERTIFICATE, 0,
//  243                           ZCL_KE_IMPLICIT_CERTIFICATE_LEN, certData);
//  244       HalFlashRead(HAL_FLASH_IEEE_PAGE, HAL_FLASH_DEV_PRIVATE_KEY_OSET, certData,
//  245                                         ZCL_KE_DEVICE_PRIVATE_KEY_LEN);
//  246       (void)osal_nv_write(ZCD_NV_DEVICE_PRIVATE_KEY, 0, ZCL_KE_DEVICE_PRIVATE_KEY_LEN, certData);
//  247     }
//  248   }
//  249 }
//  250 #endif
//  251 
//  252 /**************************************************************************************************
//  253  * @fn          zmain_dev_info
//  254  *
//  255  * @brief       This displays the IEEE (MSB to LSB) on the LCD.
//  256  *
//  257  * input parameters
//  258  *
//  259  * None.
//  260  *
//  261  * output parameters
//  262  *
//  263  * None.
//  264  *
//  265  * @return      None.
//  266  **************************************************************************************************
//  267  */
//  268 static void zmain_dev_info(void)
//  269 {
//  270 #ifdef LCD_SUPPORTED
//  271   uint8 i;
//  272   uint8 *xad;
//  273   uint8 lcd_buf[Z_EXTADDR_LEN*2+1];
//  274 
//  275   // Display the extended address.
//  276   xad = aExtendedAddress + Z_EXTADDR_LEN - 1;
//  277 
//  278   for (i = 0; i < Z_EXTADDR_LEN*2; xad--)
//  279   {
//  280     uint8 ch;
//  281     ch = (*xad >> 4) & 0x0F;
//  282     lcd_buf[i++] = ch + (( ch < 10 ) ? '0' : '7');
//  283     ch = *xad & 0x0F;
//  284     lcd_buf[i++] = ch + (( ch < 10 ) ? '0' : '7');
//  285   }
//  286   lcd_buf[Z_EXTADDR_LEN*2] = '\0';
//  287   HalLcdWriteString( "IEEE: ", HAL_LCD_LINE_1 );
//  288   HalLcdWriteString( (char*)lcd_buf, HAL_LCD_LINE_2 );
//  289 #endif
//  290 }
//  291 
//  292 #ifdef LCD_SUPPORTED
//  293 /*********************************************************************
//  294  * @fn      zmain_lcd_init
//  295  * @brief   Initialize LCD at start up.
//  296  * @return  none
//  297  *********************************************************************/
//  298 static void zmain_lcd_init ( void )
//  299 {
//  300 #ifdef SERIAL_DEBUG_SUPPORTED
//  301   {
//  302     HalLcdWriteString( "TexasInstruments", HAL_LCD_LINE_1 );
//  303 
//  304 #if defined( MT_MAC_FUNC )
//  305 #if defined( ZDO_COORDINATOR )
//  306       HalLcdWriteString( "MAC-MT Coord", HAL_LCD_LINE_2 );
//  307 #else
//  308       HalLcdWriteString( "MAC-MT Device", HAL_LCD_LINE_2 );
//  309 #endif // ZDO
//  310 #elif defined( MT_NWK_FUNC )
//  311 #if defined( ZDO_COORDINATOR )
//  312       HalLcdWriteString( "NWK Coordinator", HAL_LCD_LINE_2 );
//  313 #else
//  314       HalLcdWriteString( "NWK Device", HAL_LCD_LINE_2 );
//  315 #endif // ZDO
//  316 #endif // MT_FUNC
//  317   }
//  318 #endif // SERIAL_DEBUG_SUPPORTED
//  319 }
//  320 #endif
// 
// 518 bytes in segment BANKED_CODE
//  12 bytes in segment BANK_RELAYS
//   9 bytes in segment SFR_AN
//   8 bytes in segment XDATA_ROM_C
// 
// 530 bytes of CODE  memory
//   8 bytes of CONST memory
//   0 bytes of DATA  memory (+ 9 bytes shared)
//
//Errors: none
//Warnings: none
