###############################################################################
#                                                                             #
# IAR C/C++ Compiler V8.10.1.10194/W32 for 8051         05/Oct/2018  09:38:09 #
# Copyright 2004-2011 IAR Systems AB.                                         #
#                                                                             #
#    Core               =  plain                                              #
#    Code model         =  banked                                             #
#    Data model         =  large                                              #
#    Calling convention =  xdata reentrant                                    #
#    Constant location  =  data_rom                                           #
#    Dptr setup         =  1,16                                               #
#    Source file        =  C:\Users\1314\Desktop\Texas                        #
#                          Instruments\ZStack-CC2530-2.5.1a\Projects\zstack\S #
#                          amples\SampleApp\Source\SampleApp.c                #
#    Command line       =  -f "C:\Users\1314\Desktop\Texas                    #
#                          Instruments\ZStack-CC2530-2.5.1a\Projects\zstack\S #
#                          amples\SampleApp\CC2530DB\..\..\..\Tools\CC2530DB\ #
#                          f8wCoord.cfg" (-DCPU32MHZ -DROOT=__near_func       #
#                          -DMAC_CFG_APP_PENDING_QUEUE=TRUE                   #
#                          -DMAC_CFG_TX_DATA_MAX=5 -DMAC_CFG_TX_MAX=8         #
#                          -DMAC_CFG_RX_MAX=5 -DZDO_COORDINATOR -DRTR_NWK)    #
#                          -f "C:\Users\1314\Desktop\Texas                    #
#                          Instruments\ZStack-CC2530-2.5.1a\Projects\zstack\S #
#                          amples\SampleApp\CC2530DB\..\..\..\Tools\CC2530DB\ #
#                          f8wConfig.cfg" (-DZIGBEEPRO -DSECURE=0             #
#                          -DZG_SECURE_DYNAMIC=0 -DREFLECTOR                  #
#                          -DDEFAULT_CHANLIST=0x00000800                      #
#                          -DZDAPP_CONFIG_PAN_ID=0xFFFF                       #
#                          -DNWK_START_DELAY=100 -DEXTENDED_JOINING_RANDOM_MA #
#                          SK=0x007F -DBEACON_REQUEST_DELAY=100               #
#                          -DBEACON_REQ_DELAY_MASK=0x00FF                     #
#                          -DLINK_STATUS_JITTER_MASK=0x007F                   #
#                          -DROUTE_EXPIRY_TIME=30 -DAPSC_ACK_WAIT_DURATION_PO #
#                          LLED=3000 -DNWK_INDIRECT_MSG_TIMEOUT=7             #
#                          -DMAX_RREQ_ENTRIES=8 -DAPSC_MAX_FRAME_RETRIES=3    #
#                          -DNWK_MAX_DATA_RETRIES=2                           #
#                          -DMAX_POLL_FAILURE_RETRIES=2 -DMAX_BCAST=9         #
#                          -DAPS_MAX_GROUPS=16 -DMAX_RTG_ENTRIES=40           #
#                          -DNWK_MAX_BINDING_ENTRIES=4                        #
#                          -DMAX_BINDING_CLUSTER_IDS=4 "-DDEFAULT_KEY={0x01,  #
#                          0x03, 0x05, 0x07, 0x09, 0x0B, 0x0D, 0x0F, 0x00,    #
#                          0x02, 0x04, 0x06, 0x08, 0x0A, 0x0C, 0x0D}"         #
#                          -DMAC_MAX_FRAME_SIZE=116                           #
#                          -DZDNWKMGR_MIN_TRANSMISSIONS=20 "-DCONST=const     #
#                          __code" -DGENERIC=__generic                        #
#                          -DRFD_RCVC_ALWAYS_ON=FALSE -DPOLL_RATE=1000        #
#                          -DQUEUED_POLL_RATE=100 -DRESPONSE_POLL_RATE=100)   #
#                          -DREJOIN_POLL_RATE=440 "C:\Users\1314\Desktop\Texa #
#                          s Instruments\ZStack-CC2530-2.5.1a\Projects\zstack #
#                          \Samples\SampleApp\Source\SampleApp.c" -D          #
#                          ZTOOL_P1 -D MT_TASK -D MT_SYS_FUNC -D MT_ZDO_FUNC  #
#                          -D LCD_SUPPORTED=DEBUG -lC                         #
#                          "C:\Users\1314\Desktop\Texas                       #
#                          Instruments\ZStack-CC2530-2.5.1a\Projects\zstack\S #
#                          amples\SampleApp\CC2530DB\CoordinatorEB\List\"     #
#                          -lA "C:\Users\1314\Desktop\Texas                   #
#                          Instruments\ZStack-CC2530-2.5.1a\Projects\zstack\S #
#                          amples\SampleApp\CC2530DB\CoordinatorEB\List\"     #
#                          --diag_suppress Pe001,Pa010 -o                     #
#                          "C:\Users\1314\Desktop\Texas                       #
#                          Instruments\ZStack-CC2530-2.5.1a\Projects\zstack\S #
#                          amples\SampleApp\CC2530DB\CoordinatorEB\Obj\" -e   #
#                          --no_code_motion --debug --core=plain --dptr=16,1  #
#                          --data_model=large --code_model=banked             #
#                          --calling_convention=xdata_reentrant               #
#                          --place_constants=data_rom --nr_virtual_regs 16    #
#                          -I "C:\Users\1314\Desktop\Texas                    #
#                          Instruments\ZStack-CC2530-2.5.1a\Projects\zstack\S #
#                          amples\SampleApp\CC2530DB\" -I                     #
#                          "C:\Users\1314\Desktop\Texas                       #
#                          Instruments\ZStack-CC2530-2.5.1a\Projects\zstack\S #
#                          amples\SampleApp\CC2530DB\..\Source\" -I           #
#                          "C:\Users\1314\Desktop\Texas                       #
#                          Instruments\ZStack-CC2530-2.5.1a\Projects\zstack\S #
#                          amples\SampleApp\CC2530DB\..\..\..\ZMain\TI2530DB\ #
#                          " -I "C:\Users\1314\Desktop\Texas                  #
#                          Instruments\ZStack-CC2530-2.5.1a\Projects\zstack\S #
#                          amples\SampleApp\CC2530DB\..\..\..\..\..\Component #
#                          s\hal\include\" -I "C:\Users\1314\Desktop\Texas    #
#                          Instruments\ZStack-CC2530-2.5.1a\Projects\zstack\S #
#                          amples\SampleApp\CC2530DB\..\..\..\..\..\Component #
#                          s\hal\target\CC2530EB\" -I                         #
#                          "C:\Users\1314\Desktop\Texas                       #
#                          Instruments\ZStack-CC2530-2.5.1a\Projects\zstack\S #
#                          amples\SampleApp\CC2530DB\..\..\..\..\..\Component #
#                          s\mac\include\" -I "C:\Users\1314\Desktop\Texas    #
#                          Instruments\ZStack-CC2530-2.5.1a\Projects\zstack\S #
#                          amples\SampleApp\CC2530DB\..\..\..\..\..\Component #
#                          s\mac\high_level\" -I "C:\Users\1314\Desktop\Texas #
#                           Instruments\ZStack-CC2530-2.5.1a\Projects\zstack\ #
#                          Samples\SampleApp\CC2530DB\..\..\..\..\..\Componen #
#                          ts\mac\low_level\srf04\" -I                        #
#                          "C:\Users\1314\Desktop\Texas                       #
#                          Instruments\ZStack-CC2530-2.5.1a\Projects\zstack\S #
#                          amples\SampleApp\CC2530DB\..\..\..\..\..\Component #
#                          s\mac\low_level\srf04\single_chip\" -I             #
#                          "C:\Users\1314\Desktop\Texas                       #
#                          Instruments\ZStack-CC2530-2.5.1a\Projects\zstack\S #
#                          amples\SampleApp\CC2530DB\..\..\..\..\..\Component #
#                          s\mt\" -I "C:\Users\1314\Desktop\Texas             #
#                          Instruments\ZStack-CC2530-2.5.1a\Projects\zstack\S #
#                          amples\SampleApp\CC2530DB\..\..\..\..\..\Component #
#                          s\osal\include\" -I "C:\Users\1314\Desktop\Texas   #
#                          Instruments\ZStack-CC2530-2.5.1a\Projects\zstack\S #
#                          amples\SampleApp\CC2530DB\..\..\..\..\..\Component #
#                          s\services\saddr\" -I "C:\Users\1314\Desktop\Texas #
#                           Instruments\ZStack-CC2530-2.5.1a\Projects\zstack\ #
#                          Samples\SampleApp\CC2530DB\..\..\..\..\..\Componen #
#                          ts\services\sdata\" -I "C:\Users\1314\Desktop\Texa #
#                          s Instruments\ZStack-CC2530-2.5.1a\Projects\zstack #
#                          \Samples\SampleApp\CC2530DB\..\..\..\..\..\Compone #
#                          nts\stack\af\" -I "C:\Users\1314\Desktop\Texas     #
#                          Instruments\ZStack-CC2530-2.5.1a\Projects\zstack\S #
#                          amples\SampleApp\CC2530DB\..\..\..\..\..\Component #
#                          s\stack\nwk\" -I "C:\Users\1314\Desktop\Texas      #
#                          Instruments\ZStack-CC2530-2.5.1a\Projects\zstack\S #
#                          amples\SampleApp\CC2530DB\..\..\..\..\..\Component #
#                          s\stack\sapi\" -I "C:\Users\1314\Desktop\Texas     #
#                          Instruments\ZStack-CC2530-2.5.1a\Projects\zstack\S #
#                          amples\SampleApp\CC2530DB\..\..\..\..\..\Component #
#                          s\stack\sec\" -I "C:\Users\1314\Desktop\Texas      #
#                          Instruments\ZStack-CC2530-2.5.1a\Projects\zstack\S #
#                          amples\SampleApp\CC2530DB\..\..\..\..\..\Component #
#                          s\stack\sys\" -I "C:\Users\1314\Desktop\Texas      #
#                          Instruments\ZStack-CC2530-2.5.1a\Projects\zstack\S #
#                          amples\SampleApp\CC2530DB\..\..\..\..\..\Component #
#                          s\stack\zdo\" -I "C:\Users\1314\Desktop\Texas      #
#                          Instruments\ZStack-CC2530-2.5.1a\Projects\zstack\S #
#                          amples\SampleApp\CC2530DB\..\..\..\..\..\Component #
#                          s\zmac\" -I "C:\Users\1314\Desktop\Texas           #
#                          Instruments\ZStack-CC2530-2.5.1a\Projects\zstack\S #
#                          amples\SampleApp\CC2530DB\..\..\..\..\..\Component #
#                          s\zmac\f8w\" -Ohz --require_prototypes             #
#    List file          =  C:\Users\1314\Desktop\Texas                        #
#                          Instruments\ZStack-CC2530-2.5.1a\Projects\zstack\S #
#                          amples\SampleApp\CC2530DB\CoordinatorEB\List\Sampl #
#                          eApp.lst                                           #
#    Object file        =  C:\Users\1314\Desktop\Texas                        #
#                          Instruments\ZStack-CC2530-2.5.1a\Projects\zstack\S #
#                          amples\SampleApp\CC2530DB\CoordinatorEB\Obj\Sample #
#                          App.r51                                            #
#                                                                             #
#                                                                             #
###############################################################################

C:\Users\1314\Desktop\Texas Instruments\ZStack-CC2530-2.5.1a\Projects\zstack\Samples\SampleApp\Source\SampleApp.c
      1          #include "OSAL.h"
      2          #include "ZGlobals.h"
      3          #include "AF.h"
      4          #include "aps_groups.h"
      5          #include "ZDApp.h"
      6          
      7          #include "SampleApp.h"
      8          #include "SampleAppHw.h"
      9          
     10          #include "OnBoard.h"

   \                                 In  segment SFR_AN, at 0x80
   \   union <unnamed> volatile __sfr _A_P0
   \                     _A_P0:
   \   000000                DS 1

   \                                 In  segment SFR_AN, at 0x90
   \   union <unnamed> volatile __sfr _A_P1
   \                     _A_P1:
   \   000000                DS 1

   \                                 In  segment SFR_AN, at 0xfd
   \   unsigned char volatile __sfr P0DIR
   \                     P0DIR:
   \   000000                DS 1

   \                                 In  segment SFR_AN, at 0xfe
   \   unsigned char volatile __sfr P1DIR
   \                     P1DIR:
   \   000000                DS 1
     11          
     12          /* HAL */
     13          #include "hal_lcd.h"
     14          #include "hal_led.h"
     15          #include "hal_key.h"
     16          
     17          
     18          /*********************************************************************
     19           * MACROS
     20           */
     21          
     22          /*********************************************************************
     23           * CONSTANTS
     24           */
     25          
     26          /*********************************************************************
     27           * TYPEDEFS
     28           */
     29          
     30          /*********************************************************************
     31           * GLOBAL VARIABLES
     32           */
     33          
     34          // This list should be filled with Application specific Cluster IDs.

   \                                 In  segment XDATA_ROM_C, align 1
     35          const cId_t SampleApp_ClusterList[SAMPLEAPP_MAX_CLUSTERS] =
   \                     SampleApp_ClusterList:
   \   000000   0100         DW 1
   \   000002   0200         DW 2
     36          {
     37            SAMPLEAPP_PERIODIC_CLUSTERID,
     38            SAMPLEAPP_FLASH_CLUSTERID
     39          };
     40          

   \                                 In  segment XDATA_ROM_C, align 1
     41          const SimpleDescriptionFormat_t SampleApp_SimpleDesc =
   \                     SampleApp_SimpleDesc:
   \   000000   14           DB 20
   \   000001   080F         DW 3848
   \   000003   0100         DW 1
   \   000005   00           DB 0
   \   000006   02           DB 2
   \   000007   ....         DW SampleApp_ClusterList
   \   000009   02           DB 2
   \   00000A   ....         DW SampleApp_ClusterList
     42          {
     43            SAMPLEAPP_ENDPOINT,              //  int Endpoint;
     44            SAMPLEAPP_PROFID,                //  uint16 AppProfId[2];
     45            SAMPLEAPP_DEVICEID,              //  uint16 AppDeviceId[2];
     46            SAMPLEAPP_DEVICE_VERSION,        //  int   AppDevVer:4;
     47            SAMPLEAPP_FLAGS,                 //  int   AppFlags:4;
     48            SAMPLEAPP_MAX_CLUSTERS,          //  uint8  AppNumInClusters;
     49            (cId_t *)SampleApp_ClusterList,  //  uint8 *pAppInClusterList;
     50            SAMPLEAPP_MAX_CLUSTERS,          //  uint8  AppNumInClusters;
     51            (cId_t *)SampleApp_ClusterList   //  uint8 *pAppInClusterList;
     52          };
     53          
     54          // This is the Endpoint/Interface description.  It is defined here, but
     55          // filled-in in SampleApp_Init().  Another way to go would be to fill
     56          // in the structure here and make it a "const" (in code space).  The
     57          // way it's defined in this sample app it is define in RAM.

   \                                 In  segment XDATA_Z, align 1, keep-with-next
     58          endPointDesc_t SampleApp_epDesc;
   \                     SampleApp_epDesc:
   \   000000                DS 6
   \   000006                REQUIRE __INIT_XDATA_Z
     59          
     60          /*********************************************************************
     61           * EXTERNAL VARIABLES
     62           */
     63          
     64          /*********************************************************************
     65           * EXTERNAL FUNCTIONS
     66           */
     67          
     68          /*********************************************************************
     69           * LOCAL VARIABLES
     70           */

   \                                 In  segment XDATA_Z, align 1, keep-with-next
     71          uint8 SampleApp_TaskID;   // Task ID for internal task/event processing
   \                     SampleApp_TaskID:
   \   000000                DS 1
   \   000001                REQUIRE __INIT_XDATA_Z
     72                                    // This variable will be received when
     73                                    // SampleApp_Init() is called.

   \                                 In  segment XDATA_Z, align 1, keep-with-next
     74          devStates_t SampleApp_NwkState;
   \                     SampleApp_NwkState:
   \   000000                DS 1
   \   000001                REQUIRE __INIT_XDATA_Z
     75          

   \                                 In  segment XDATA_Z, align 1, keep-with-next
     76          uint8 SampleApp_TransID;  // This is the unique message ID (counter)
   \                     SampleApp_TransID:
   \   000000                DS 1
   \   000001                REQUIRE __INIT_XDATA_Z
     77          

   \                                 In  segment XDATA_Z, align 1, keep-with-next
     78          afAddrType_t SampleApp_Periodic_DstAddr;
   \                     SampleApp_Periodic_DstAddr:
   \   000000                DS 12
   \   00000C                REQUIRE __INIT_XDATA_Z

   \                                 In  segment XDATA_Z, align 1, keep-with-next
     79          afAddrType_t SampleApp_Flash_DstAddr;
   \                     SampleApp_Flash_DstAddr:
   \   000000                DS 12
   \   00000C                REQUIRE __INIT_XDATA_Z
     80          

   \                                 In  segment XDATA_Z, align 1, keep-with-next
     81          aps_Group_t SampleApp_Group;
   \                     SampleApp_Group:
   \   000000                DS 18
   \   000012                REQUIRE __INIT_XDATA_Z
     82          

   \                                 In  segment XDATA_Z, align 1, keep-with-next
     83          uint8 SampleAppPeriodicCounter = 0;
   \                     SampleAppPeriodicCounter:
   \   000000                DS 1
   \   000001                REQUIRE __INIT_XDATA_Z

   \                                 In  segment XDATA_Z, align 1, keep-with-next
     84          uint8 SampleAppFlashCounter = 0;
   \                     SampleAppFlashCounter:
   \   000000                DS 1
   \   000001                REQUIRE __INIT_XDATA_Z
     85          
     86          
     87          /***************************************************************************************************************/
     88          
     89          /*********************************************************************
     90          
     91           * LOCAL FUNCTIONS
     92           */
     93          void SampleApp_HandleKeys( uint8 shift, uint8 keys );
     94          void SampleApp_MessageMSGCB( afIncomingMSGPacket_t *pckt );
     95          void SampleApp_SendPeriodicMessage( void );
     96          void SampleApp_SendFlashMessage( uint16 flashTime );
     97          
     98          /*********************************************************************
     99           * NETWORK LAYER CALLBACKS
    100           */
    101          
    102          /*********************************************************************
    103           * PUBLIC FUNCTIONS
    104           */
    105          
    106          /*********************************************************************
    107           * @fn      SampleApp_Init
    108           *
    109           * @brief   Initialization function for the Generic App Task.
    110           *          This is called during initialization and should contain
    111           *          any application specific initialization (ie. hardware
    112           *          initialization/setup, table initialization, power up
    113           *          notificaiton ... ).
    114           *
    115           * @param   task_id - the ID assigned by OSAL.  This ID should be
    116           *                    used to send messages and set timers.
    117           *
    118           * @return  none
    119           */

   \                                 In  segment BANKED_CODE, align 1, keep-with-next
    120          void SampleApp_Init( uint8 task_id )
   \                     SampleApp_Init:
    121          {
   \   000000   74F5         MOV     A,#-0xb
   \   000002   12....       LCALL   ?BANKED_ENTER_XDATA
   \   000005                ; Saved register size: 11
   \   000005                ; Auto size: 0
   \   000005   E9           MOV     A,R1
    122            SampleApp_TaskID = task_id;
   \   000006   90....       MOV     DPTR,#SampleApp_TaskID
   \   000009   F0           MOVX    @DPTR,A
    123            SampleApp_NwkState = DEV_INIT;
   \   00000A   90....       MOV     DPTR,#SampleApp_NwkState
   \   00000D   7401         MOV     A,#0x1
   \   00000F   F0           MOVX    @DPTR,A
    124            SampleApp_TransID = 0;
   \   000010   90....       MOV     DPTR,#SampleApp_TransID
   \   000013   E4           CLR     A
   \   000014   F0           MOVX    @DPTR,A
    125          
    126            // Device hardware initialization can be added here or in main() (Zmain.c).
    127            // If the hardware is application specific - add it here.
    128            // If the hardware is other parts of the device add it in main().
    129          
    130           #if defined ( BUILD_ALL_DEVICES )
    131            // The "Demo" target is setup to have BUILD_ALL_DEVICES and HOLD_AUTO_START
    132            // We are looking at a jumper (defined in SampleAppHw.c) to be jumpered
    133            // together - if they are - we will start up a coordinator. Otherwise,
    134            // the device will start as a router.
    135            if ( readCoordinatorJumper() )
    136              zgDeviceLogicalType = ZG_DEVICETYPE_COORDINATOR;
    137            else
    138              zgDeviceLogicalType = ZG_DEVICETYPE_ROUTER;
    139          #endif // BUILD_ALL_DEVICES
    140          
    141          #if defined ( HOLD_AUTO_START )
    142            // HOLD_AUTO_START is a compile option that will surpress ZDApp
    143            //  from starting the device and wait for the application to
    144            //  start the device.
    145            ZDOInitDevice(0);
    146          #endif
    147          
    148            // Setup for the periodic message's destination address
    149            // Broadcast to everyone
    150            SampleApp_Periodic_DstAddr.addrMode = (afAddrMode_t)AddrBroadcast;
   \   000015   90....       MOV     DPTR,#SampleApp_Periodic_DstAddr + 8
   \   000018   740F         MOV     A,#0xf
   \   00001A   F0           MOVX    @DPTR,A
    151            SampleApp_Periodic_DstAddr.endPoint = SAMPLEAPP_ENDPOINT;
   \   00001B   A3           INC     DPTR
   \   00001C   7414         MOV     A,#0x14
   \   00001E   F0           MOVX    @DPTR,A
    152            SampleApp_Periodic_DstAddr.addr.shortAddr = 0xFFFF;
   \   00001F   90....       MOV     DPTR,#SampleApp_Periodic_DstAddr
   \   000022   74FF         MOV     A,#-0x1
   \   000024   F0           MOVX    @DPTR,A
   \   000025   A3           INC     DPTR
   \   000026   F0           MOVX    @DPTR,A
    153          
    154            // Setup for the flash command's destination address - Group 1
    155            SampleApp_Flash_DstAddr.addrMode = (afAddrMode_t)afAddrGroup;
   \   000027   90....       MOV     DPTR,#SampleApp_Flash_DstAddr + 8
   \   00002A   7401         MOV     A,#0x1
   \   00002C   F0           MOVX    @DPTR,A
    156            SampleApp_Flash_DstAddr.endPoint = SAMPLEAPP_ENDPOINT;
   \   00002D   A3           INC     DPTR
   \   00002E   7414         MOV     A,#0x14
   \   000030   F0           MOVX    @DPTR,A
    157            SampleApp_Flash_DstAddr.addr.shortAddr = SAMPLEAPP_FLASH_GROUP;
   \   000031   90....       MOV     DPTR,#SampleApp_Flash_DstAddr
   \   000034   7401         MOV     A,#0x1
   \   000036   F0           MOVX    @DPTR,A
   \   000037   A3           INC     DPTR
   \   000038   E4           CLR     A
   \   000039   F0           MOVX    @DPTR,A
    158          
    159            // Fill out the endpoint description.
    160            SampleApp_epDesc.endPoint = SAMPLEAPP_ENDPOINT;
   \   00003A   90....       MOV     DPTR,#SampleApp_epDesc
   \   00003D   7414         MOV     A,#0x14
   \   00003F   F0           MOVX    @DPTR,A
    161            SampleApp_epDesc.task_id = &SampleApp_TaskID;
   \   000040   A3           INC     DPTR
   \   000041   74..         MOV     A,#SampleApp_TaskID & 0xff
   \   000043   F0           MOVX    @DPTR,A
   \   000044   A3           INC     DPTR
   \   000045   74..         MOV     A,#(SampleApp_TaskID >> 8) & 0xff
   \   000047   F0           MOVX    @DPTR,A
    162            SampleApp_epDesc.simpleDesc
    163                      = (SimpleDescriptionFormat_t *)&SampleApp_SimpleDesc;
   \   000048   A3           INC     DPTR
   \   000049   74..         MOV     A,#SampleApp_SimpleDesc & 0xff
   \   00004B   F0           MOVX    @DPTR,A
   \   00004C   A3           INC     DPTR
   \   00004D   74..         MOV     A,#(SampleApp_SimpleDesc >> 8) & 0xff
   \   00004F   F0           MOVX    @DPTR,A
    164            SampleApp_epDesc.latencyReq = noLatencyReqs;
   \   000050   A3           INC     DPTR
   \   000051   E4           CLR     A
   \   000052   F0           MOVX    @DPTR,A
    165          
    166            // Register the endpoint description with the AF
    167            afRegister( &SampleApp_epDesc );
   \   000053                ; Setup parameters for call to function afRegister
   \   000053   7A..         MOV     R2,#SampleApp_epDesc & 0xff
   \   000055   7B..         MOV     R3,#(SampleApp_epDesc >> 8) & 0xff
   \   000057   12....       LCALL   ??afRegister?relay
    168          
    169            // Register for all key events - This app will handle all key events
    170            RegisterForKeys( SampleApp_TaskID );
   \   00005A                ; Setup parameters for call to function RegisterForKeys
   \   00005A   90....       MOV     DPTR,#SampleApp_TaskID
   \   00005D   E0           MOVX    A,@DPTR
   \   00005E   F9           MOV     R1,A
   \   00005F   12....       LCALL   ??RegisterForKeys?relay
    171          
    172            // By default, all devices start out in Group 1
    173            SampleApp_Group.ID = 0x0001;
   \   000062   90....       MOV     DPTR,#SampleApp_Group
   \   000065   7401         MOV     A,#0x1
   \   000067   F0           MOVX    @DPTR,A
   \   000068   A3           INC     DPTR
   \   000069   E4           CLR     A
   \   00006A   F0           MOVX    @DPTR,A
    174            osal_memcpy( SampleApp_Group.name, "Group 1", 7  );
   \   00006B                ; Setup parameters for call to function osal_memcpy
   \   00006B   75....       MOV     ?V0 + 0,#`?<Constant "Group 1">` & 0xff
   \   00006E   75....       MOV     ?V0 + 1,#(`?<Constant "Group 1">` >> 8) & 0xff
   \   000071   F5..         MOV     ?V0 + 2,A
   \   000073   78..         MOV     R0,#?V0 + 0
   \   000075   12....       LCALL   ?PUSH_XSTACK_I_THREE
   \   000078   7C07         MOV     R4,#0x7
   \   00007A   7D00         MOV     R5,#0x0
   \   00007C   7A..         MOV     R2,#(SampleApp_Group + 2) & 0xff
   \   00007E   7B..         MOV     R3,#((SampleApp_Group + 2) >> 8) & 0xff
   \   000080   12....       LCALL   ??osal_memcpy?relay
   \   000083   7403         MOV     A,#0x3
   \   000085   12....       LCALL   ?DEALLOC_XSTACK8
    175            aps_AddGroup( SAMPLEAPP_ENDPOINT, &SampleApp_Group );
   \   000088                ; Setup parameters for call to function aps_AddGroup
   \   000088   7A..         MOV     R2,#SampleApp_Group & 0xff
   \   00008A   7B..         MOV     R3,#(SampleApp_Group >> 8) & 0xff
   \   00008C   7914         MOV     R1,#0x14
   \   00008E   12....       LCALL   ??aps_AddGroup?relay
    176          
    177          #if defined ( LCD_SUPPORTED )
    178            HalLcdWriteString( "SampleApp", HAL_LCD_LINE_1 );
   \   000091                ; Setup parameters for call to function HalLcdWriteString
   \   000091   7901         MOV     R1,#0x1
   \   000093   7A..         MOV     R2,#`?<Constant "SampleApp">` & 0xff
   \   000095   7B..         MOV     R3,#(`?<Constant "SampleApp">` >> 8) & 0xff
   \   000097   12....       LCALL   ??HalLcdWriteString?relay
    179          #endif
    180          }
   \   00009A   7F03         MOV     R7,#0x3
   \   00009C   02....       LJMP    ?BANKED_LEAVE_XDATA
    181          
    182          /*********************************************************************
    183           * @fn      SampleApp_ProcessEvent
    184           *
    185           * @brief   Generic Application Task event processor.  This function
    186           *          is called to process all events for the task.  Events
    187           *          include timers, messages and any other user defined events.
    188           *
    189           * @param   task_id  - The OSAL assigned task ID.
    190           * @param   events - events to process.  This is a bit map and can
    191           *                   contain more than one event.
    192           *
    193           * @return  none
    194           */
    195          
    196          

   \                                 In  segment BANKED_CODE, align 1, keep-with-next
    197          uint16 SampleApp_ProcessEvent( uint8 task_id, uint16 events )
   \                     SampleApp_ProcessEvent:
    198          {
   \   000000   74F4         MOV     A,#-0xc
   \   000002   12....       LCALL   ?BANKED_ENTER_XDATA
   \   000005                ; Saved register size: 12
   \   000005                ; Auto size: 0
   \   000005   EA           MOV     A,R2
   \   000006   FE           MOV     R6,A
   \   000007   EB           MOV     A,R3
   \   000008   FF           MOV     R7,A
    199            afIncomingMSGPacket_t *MSGpkt;
    200            (void)task_id;  // Intentionally unreferenced parameter
    201          
    202            if ( events & SYS_EVENT_MSG )
   \   000009   5480         ANL     A,#0x80
   \   00000B   604E         JZ      ??SampleApp_ProcessEvent_0
    203            {
    204              MSGpkt = (afIncomingMSGPacket_t *)osal_msg_receive( SampleApp_TaskID );
   \   00000D                ; Setup parameters for call to function osal_msg_receive
   \   00000D   800D         SJMP    ??SampleApp_ProcessEvent_1
    205              while ( MSGpkt )
    206              {
    207                switch ( MSGpkt->hdr.event )
    208                {
    209                  // Received when a key is pressed
    210                  case KEY_CHANGE:
    211                    SampleApp_HandleKeys( ((keyChange_t *)MSGpkt)->state, ((keyChange_t *)MSGpkt)->keys );
    212                    break;
    213          
    214                  // Received when a messages is received (OTA) for this endpoint
    215                  case AF_INCOMING_MSG_CMD:
    216                    SampleApp_MessageMSGCB( MSGpkt );
    217                    break;
    218          
    219                  // Received whenever the device changes state in the network
    220                  case ZDO_STATE_CHANGE:
    221                    SampleApp_NwkState = (devStates_t)(MSGpkt->hdr.status);
   \                     ??SampleApp_ProcessEvent_2:
   \   00000F   A3           INC     DPTR
   \   000010   E0           MOVX    A,@DPTR
   \   000011   90....       MOV     DPTR,#SampleApp_NwkState
   \   000014   F0           MOVX    @DPTR,A
    222                    if ( (SampleApp_NwkState == DEV_ZB_COORD)
    223                        || (SampleApp_NwkState == DEV_ROUTER)
    224                        || (SampleApp_NwkState == DEV_END_DEVICE) )
    225                    {
    226                      // Start sending the periodic message in a regular interval.
    227          
    228                      //HalLedBlink (HAL_LED_ALL, 3, 50, 1000);
    229                      //osal_start_timerEx(SampleApp_TaskID,SAMPLEAPP_EVT,3000);
    230          
    231                      //osal_start_timerEx( SampleApp_TaskID, SAMPLEAPP_SEND_PERIODIC_MSG_EVT,SAMPLEAPP_SEND_PERIODIC_MSG_TIMEOUT );
    232                    }
    233                    else
    234                    {
    235                      // Device is no longer in the network
    236                    }
    237                    break;
    238          
    239                  default:
    240                    break;
    241                }
    242          
    243                // Release the memory
    244                osal_msg_deallocate( (uint8 *)MSGpkt );
   \                     ??SampleApp_ProcessEvent_3:
   \   000015                ; Setup parameters for call to function osal_msg_deallocate
   \   000015   AA..         MOV     R2,?V0 + 0
   \   000017   AB..         MOV     R3,?V0 + 1
   \   000019   12....       LCALL   ??osal_msg_deallocate?relay
    245          
    246                // Next - if one is available
    247                MSGpkt = (afIncomingMSGPacket_t *)osal_msg_receive( SampleApp_TaskID );
   \   00001C                ; Setup parameters for call to function osal_msg_receive
   \                     ??SampleApp_ProcessEvent_1:
   \   00001C   90....       MOV     DPTR,#SampleApp_TaskID
   \   00001F   E0           MOVX    A,@DPTR
   \   000020   F9           MOV     R1,A
   \   000021   12....       LCALL   ??osal_msg_receive?relay
   \   000024   8A..         MOV     ?V0 + 0,R2
   \   000026   8B..         MOV     ?V0 + 1,R3
   \   000028   E5..         MOV     A,?V0 + 0
   \   00002A   45..         ORL     A,?V0 + 1
   \   00002C   6025         JZ      ??SampleApp_ProcessEvent_4
   \   00002E   85..82       MOV     DPL,?V0 + 0
   \   000031   85..83       MOV     DPH,?V0 + 1
   \   000034   E0           MOVX    A,@DPTR
   \   000035   2440         ADD     A,#0x40
   \   000037   6006         JZ      ??SampleApp_ProcessEvent_5
   \   000039   24EF         ADD     A,#-0x11
   \   00003B   60D2         JZ      ??SampleApp_ProcessEvent_2
   \   00003D   80D6         SJMP    ??SampleApp_ProcessEvent_3
   \                     ??SampleApp_ProcessEvent_5:
   \   00003F                ; Setup parameters for call to function SampleApp_HandleKeys
   \   00003F   A3           INC     DPTR
   \   000040   A3           INC     DPTR
   \   000041   A3           INC     DPTR
   \   000042   E0           MOVX    A,@DPTR
   \   000043   FA           MOV     R2,A
   \   000044   85..82       MOV     DPL,?V0 + 0
   \   000047   85..83       MOV     DPH,?V0 + 1
   \   00004A   A3           INC     DPTR
   \   00004B   A3           INC     DPTR
   \   00004C   E0           MOVX    A,@DPTR
   \   00004D   F9           MOV     R1,A
   \   00004E   12....       LCALL   ??SampleApp_HandleKeys?relay
   \   000051   80C2         SJMP    ??SampleApp_ProcessEvent_3
    248              }
    249          
    250              // return unprocessed events
    251              return (events ^ SYS_EVENT_MSG);
   \                     ??SampleApp_ProcessEvent_4:
   \   000053   EE           MOV     A,R6
   \   000054   FA           MOV     R2,A
   \   000055   EF           MOV     A,R7
   \   000056   6480         XRL     A,#0x80
   \                     ??SampleApp_ProcessEvent_6:
   \   000058   FB           MOV     R3,A
   \   000059   802A         SJMP    ??SampleApp_ProcessEvent_7
    252            }
    253          
    254            // Send a message out - This event is generated by a timer
    255            //  (setup in SampleApp_Init()).
    256            if ( events & SAMPLEAPP_SEND_PERIODIC_MSG_EVT )
   \                     ??SampleApp_ProcessEvent_0:
   \   00005B   EE           MOV     A,R6
   \   00005C   A2E0         MOV     C,0xE0 /* A   */.0
   \   00005E   5021         JNC     ??SampleApp_ProcessEvent_8
    257            {
    258              // Send the periodic message
    259              SampleApp_SendPeriodicMessage();
   \   000060                ; Setup parameters for call to function SampleApp_SendPeriodicMessage
   \   000060   12....       LCALL   ??SampleApp_SendPeriodicMessage?relay
    260          
    261              // Setup to send message again in normal period (+ a little jitter)
    262              osal_start_timerEx( SampleApp_TaskID, SAMPLEAPP_SEND_PERIODIC_MSG_EVT,
    263                  (SAMPLEAPP_SEND_PERIODIC_MSG_TIMEOUT + (osal_rand() & 0x00FF)) );
   \   000063                ; Setup parameters for call to function osal_rand
   \   000063   12....       LCALL   ??osal_rand?relay
   \   000066                ; Setup parameters for call to function osal_start_timerEx
   \   000066   EA           MOV     A,R2
   \   000067   2488         ADD     A,#-0x78
   \   000069   FC           MOV     R4,A
   \   00006A   E4           CLR     A
   \   00006B   3413         ADDC    A,#0x13
   \   00006D   FD           MOV     R5,A
   \   00006E   7A01         MOV     R2,#0x1
   \   000070   7B00         MOV     R3,#0x0
   \   000072   90....       MOV     DPTR,#SampleApp_TaskID
   \   000075   E0           MOVX    A,@DPTR
   \   000076   F9           MOV     R1,A
   \   000077   12....       LCALL   ??osal_start_timerEx?relay
    264          
    265              // return unprocessed events
    266              return (events ^ SAMPLEAPP_SEND_PERIODIC_MSG_EVT);
   \   00007A   EE           MOV     A,R6
   \   00007B   6401         XRL     A,#0x1
   \   00007D   FA           MOV     R2,A
   \   00007E   EF           MOV     A,R7
   \   00007F   80D7         SJMP    ??SampleApp_ProcessEvent_6
    267            }
    268          
    269                //LED灯实验一
    270             //if(events & SAMPLEAPP_EVT)
    271             //{
    272                //HalLedBlink (HAL_LED_1, 5, 50, 1000);
    273                //osal_start_timerEx(SampleApp_TaskID,SAMPLEAPP2_EVT,5000);
    274                //return (events ^ SAMPLEAPP_EVT);
    275             //}
    276          
    277             //if(events & SAMPLEAPP2_EVT)
    278             //{
    279                //HalLedBlink (HAL_LED_2, 4, 25, 2000);
    280                //return (events ^ SAMPLEAPP2_EVT);
    281             //}
    282          
    283             //Discard unknown events
    284            return 0;
   \                     ??SampleApp_ProcessEvent_8:
   \   000081   7A00         MOV     R2,#0x0
   \   000083   7B00         MOV     R3,#0x0
   \                     ??SampleApp_ProcessEvent_7:
   \   000085   7F04         MOV     R7,#0x4
   \   000087   02....       LJMP    ?BANKED_LEAVE_XDATA
    285          }
    286          
    287          /*********************************************************************
    288           * Event Generation Functions
    289           */
    290          /*********************************************************************
    291           * @fn      SampleApp_HandleKeys
    292           *
    293           * @brief   Handles all key events for this device.
    294           *
    295           * @param   shift - true if in shift/alt.
    296           * @param   keys - bit field for key events. Valid entries:
    297           *                 HAL_KEY_SW_2
    298           *                 HAL_KEY_SW_1
    299           *
    300           * @return  none
    301           */

   \                                 In  segment BANKED_CODE, align 1, keep-with-next
    302          void SampleApp_HandleKeys( uint8 shift, uint8 keys )
   \                     SampleApp_HandleKeys:
    303          {
   \   000000   74F6         MOV     A,#-0xa
   \   000002   12....       LCALL   ?BANKED_ENTER_XDATA
   \   000005                ; Saved register size: 10
   \   000005                ; Auto size: 0
   \   000005   EA           MOV     A,R2
   \   000006   FE           MOV     R6,A
    304          
    305            static unsigned char keynumber=0;
    306            static unsigned char seg7table[16] = {
    307              /* 0       1       2       3       4       5       6      7*/
    308              0xc0,   0xf9,   0xa4,   0xb0,   0x99,   0x92,   0x82,   0xf8,
    309              /* 8       9      A        B       C       D       E      F*/
    310              0x80,   0x90,   0x88,   0x83,   0xc6,   0xa1,   0x86,   0x8e };
    311          
    312            P1DIR = 0xff;
   \   000007   75FEFF       MOV     0xfe,#-0x1
    313            P0 |= (0x1<<4);     //使能74HC573
   \   00000A   D284         SETB    0x80.4
    314          
    315            (void)shift;  // Intentionally unreferenced parameter
    316          
    317            if ( keys & HAL_KEY_SW_1 )
   \   00000C   A2E0         MOV     C,0xE0 /* A   */.0
   \   00000E   5007         JNC     ??SampleApp_HandleKeys_0
    318            {
    319              /* This key sends the Flash Command is sent to Group 1.
    320               * This device will not receive the Flash Command from this
    321               * device (even if it belongs to group 1).
    322               */
    323              SampleApp_SendFlashMessage( SAMPLEAPP_FLASH_DURATION );
   \   000010                ; Setup parameters for call to function SampleApp_SendFlashMessage
   \   000010   7AE8         MOV     R2,#-0x18
   \   000012   7B03         MOV     R3,#0x3
   \   000014   12....       LCALL   ??SampleApp_SendFlashMessage?relay
    324            }
    325          
    326            if ( keys & HAL_KEY_SW_2 )
   \                     ??SampleApp_HandleKeys_0:
   \   000017   EE           MOV     A,R6
   \   000018   A2E1         MOV     C,0xE0 /* A   */.1
   \   00001A   5024         JNC     ??SampleApp_HandleKeys_1
    327            {
    328              /* The Flashr Command is sent to Group 1.
    329               * This key toggles this device in and out of group 1.
    330               * If this device doesn't belong to group 1, this application
    331               * will not receive the Flash command sent to group 1.
    332               */
    333              aps_Group_t *grp;
    334              grp = aps_FindGroup( SAMPLEAPP_ENDPOINT, SAMPLEAPP_FLASH_GROUP );
    335              if ( grp )
   \   00001C                ; Setup parameters for call to function aps_FindGroup
   \   00001C   7A01         MOV     R2,#0x1
   \   00001E   7B00         MOV     R3,#0x0
   \   000020   7914         MOV     R1,#0x14
   \   000022   12....       LCALL   ??aps_FindGroup?relay
   \   000025   8B..         MOV     ?V0 + 1,R3
   \   000027   EA           MOV     A,R2
   \   000028   45..         ORL     A,?V0 + 1
   \   00002A   600B         JZ      ??SampleApp_HandleKeys_2
    336              {
    337                // Remove from the group
    338                aps_RemoveGroup( SAMPLEAPP_ENDPOINT, SAMPLEAPP_FLASH_GROUP );
   \   00002C                ; Setup parameters for call to function aps_RemoveGroup
   \   00002C   7A01         MOV     R2,#0x1
   \   00002E   7B00         MOV     R3,#0x0
   \   000030   7914         MOV     R1,#0x14
   \   000032   12....       LCALL   ??aps_RemoveGroup?relay
   \   000035   8009         SJMP    ??SampleApp_HandleKeys_1
    339              }
    340              else
    341              {
    342                // Add to the flash group
    343                aps_AddGroup( SAMPLEAPP_ENDPOINT, &SampleApp_Group );
   \                     ??SampleApp_HandleKeys_2:
   \   000037                ; Setup parameters for call to function aps_AddGroup
   \   000037   7A..         MOV     R2,#SampleApp_Group & 0xff
   \   000039   7B..         MOV     R3,#(SampleApp_Group >> 8) & 0xff
   \   00003B   7914         MOV     R1,#0x14
   \   00003D   12....       LCALL   ??aps_AddGroup?relay
    344              }
    345            }
    346          
    347            if(keys & HAL_KEY_SW_6)
   \                     ??SampleApp_HandleKeys_1:
   \   000040   EE           MOV     A,R6
   \   000041   A2E5         MOV     C,0xE0 /* A   */.5
   \   000043   503E         JNC     ??SampleApp_HandleKeys_3
    348            {
    349              keynumber++;
   \   000045   90....       MOV     DPTR,#??keynumber
   \   000048   E0           MOVX    A,@DPTR
   \   000049   04           INC     A
   \   00004A   F0           MOVX    @DPTR,A
    350              if(keynumber==10) keynumber=1;
   \   00004B   640A         XRL     A,#0xa
   \   00004D   7005         JNZ     ??SampleApp_HandleKeys_4
   \   00004F   7401         MOV     A,#0x1
   \   000051   F0           MOVX    @DPTR,A
   \   000052   8005         SJMP    ??SampleApp_HandleKeys_5
    351          
    352              if(keynumber%2 != 0)
   \                     ??SampleApp_HandleKeys_4:
   \   000054   E0           MOVX    A,@DPTR
   \   000055   A2E0         MOV     C,0xE0 /* A   */.0
   \   000057   500B         JNC     ??SampleApp_HandleKeys_6
    353              {
    354                 //HalLedOnOff(HAL_LED_2,HAL_LED_MODE_OFF);
    355                HalLedSet (HAL_LED_2, HAL_LED_MODE_OFF);
   \                     ??SampleApp_HandleKeys_5:
   \   000059                ; Setup parameters for call to function HalLedSet
   \   000059   7A00         MOV     R2,#0x0
   \   00005B   7902         MOV     R1,#0x2
   \   00005D   12....       LCALL   ?Subroutine1 & 0xFFFF
    356                HalLedBlink (HAL_LED_1, 2, 50, 1000);
    357              }
   \                     ??CrossCallReturnLabel_0:
   \   000060   7901         MOV     R1,#0x1
   \   000062   8009         SJMP    ??SampleApp_HandleKeys_7
    358              else
    359              {
    360                 //HalLedOnOff(HAL_LED_1,HAL_LED_MODE_OFF);
    361                 //HalLedBlink (HAL_LED_2, 2, 50, 1000);
    362                HalLedSet (HAL_LED_1, HAL_LED_MODE_OFF);
   \                     ??SampleApp_HandleKeys_6:
   \   000064                ; Setup parameters for call to function HalLedSet
   \   000064   7A00         MOV     R2,#0x0
   \   000066   7901         MOV     R1,#0x1
   \   000068   12....       LCALL   ?Subroutine1 & 0xFFFF
    363                HalLedBlink (HAL_LED_2, 2, 50, 1000);
    364              }
   \                     ??CrossCallReturnLabel_1:
   \   00006B   7902         MOV     R1,#0x2
   \                     ??SampleApp_HandleKeys_7:
   \   00006D   12....       LCALL   ??HalLedBlink?relay
    365          
    366              P1 =  seg7table[keynumber];
   \   000070   90....       MOV     DPTR,#??keynumber
   \   000073   E0           MOVX    A,@DPTR
   \   000074   F8           MOV     R0,A
   \   000075   74..         MOV     A,#??seg7table & 0xff
   \   000077   28           ADD     A,R0
   \   000078   F582         MOV     DPL,A
   \   00007A   74..         MOV     A,#(??seg7table >> 8) & 0xff
   \   00007C   3400         ADDC    A,#0x0
   \   00007E   F583         MOV     DPH,A
   \   000080   E0           MOVX    A,@DPTR
   \   000081   F590         MOV     0x90,A
    367          
    368              //osal_start_timerEx(SampleApp_TaskID,SAMPLEAPP_EVT,3000);
    369            }
    370          
    371          
    372            P0 &= ~(0x1<<4);
   \                     ??SampleApp_HandleKeys_3:
   \   000083   C284         CLR     0x80.4
    373            P0DIR &= ~0x10;  // 设置
   \   000085   53FDEF       ANL     0xfd,#0xef
    374          }
   \   000088   80..         SJMP    ??Subroutine2_0
   \   00008A                REQUIRE P1DIR
   \   00008A                REQUIRE _A_P0
   \   00008A                REQUIRE _A_P1
   \   00008A                REQUIRE P0DIR

   \                                 In  segment BANKED_CODE, align 1, keep-with-next
   \                     ?Subroutine1:
   \   000000   12....       LCALL   ??HalLedSet?relay
   \   000003                ; Setup parameters for call to function HalLedBlink
   \   000003                ; Setup parameters for call to function HalLedBlink
   \   000003   7CE8         MOV     R4,#-0x18
   \   000005   7D03         MOV     R5,#0x3
   \   000007   7B32         MOV     R3,#0x32
   \   000009   7A02         MOV     R2,#0x2
   \   00000B   22           RET

   \                                 In  segment BANKED_CODE, align 1, keep-with-next
   \                     ??Subroutine2_0:
   \   000000   7F02         MOV     R7,#0x2
   \   000002   02....       LJMP    ?BANKED_LEAVE_XDATA

   \                                 In  segment XDATA_Z, align 1, keep-with-next
   \                     ??keynumber:
   \   000000                DS 1
   \   000001                REQUIRE __INIT_XDATA_Z

   \                                 In  segment XDATA_I, align 1, keep-with-next
   \                     ??seg7table:
   \   000000                DS 16
   \   000010                REQUIRE `?<Initializer for seg7table>`
   \   000010                REQUIRE __INIT_XDATA_I
    375          
    376          /*********************************************************************
    377           * LOCAL FUNCTIONS
    378           */
    379          
    380          /*********************************************************************
    381           * @fn      SampleApp_MessageMSGCB
    382           *
    383           * @brief   Data message processor callback.  This function processes
    384           *          any incoming data - probably from other devices.  So, based
    385           *          on cluster ID, perform the intended action.
    386           *
    387           * @param   none
    388           *
    389           * @return  none
    390           */

   \                                 In  segment BANKED_CODE, align 1, keep-with-next
    391          void SampleApp_MessageMSGCB( afIncomingMSGPacket_t *pkt )
   \                     SampleApp_MessageMSGCB:
    392          {
   \   000000                ; Saved register size: 0
   \   000000                ; Auto size: 0
    393            uint16 flashTime;
                          ^
Warning[Pe550]: variable "flashTime" was set but never used
    394          
    395            switch ( pkt->clusterId )
    396            {
    397              case SAMPLEAPP_PERIODIC_CLUSTERID:
    398                break;
    399          
    400              case SAMPLEAPP_FLASH_CLUSTERID:
    401                flashTime = BUILD_UINT16(pkt->cmd.Data[1], pkt->cmd.Data[2] );
    402               // HalLedBlink( HAL_LED_4, 4, 50, (flashTime / 4) );
    403                break;
    404            }
    405          }
   \   000000   02....       LJMP    ?BRET
    406          
    407          /*********************************************************************
    408           * @fn      SampleApp_SendPeriodicMessage
    409           *
    410           * @brief   Send the periodic message.
    411           *
    412           * @param   none
    413           *
    414           * @return  none
    415           */

   \                                 In  segment BANKED_CODE, align 1, keep-with-next
    416          void SampleApp_SendPeriodicMessage( void )
   \                     SampleApp_SendPeriodicMessage:
    417          {
   \   000000   74F6         MOV     A,#-0xa
   \   000002   12....       LCALL   ?BANKED_ENTER_XDATA
   \   000005                ; Saved register size: 10
   \   000005                ; Auto size: 0
    418            if ( AF_DataRequest( &SampleApp_Periodic_DstAddr, &SampleApp_epDesc,
    419                                 SAMPLEAPP_PERIODIC_CLUSTERID,
    420                                 1,
    421                                 (uint8*)&SampleAppPeriodicCounter,
    422                                 &SampleApp_TransID,
    423                                 AF_DISCV_ROUTE,
    424                                 AF_DEFAULT_RADIUS ) == afStatus_SUCCESS )
   \   000005                ; Setup parameters for call to function AF_DataRequest
   \   000005   75..1E       MOV     ?V0 + 0,#0x1e
   \   000008   78..         MOV     R0,#?V0 + 0
   \   00000A   12....       LCALL   ?PUSH_XSTACK_I_ONE
   \   00000D   75....       MOV     ?V0 + 0,#SampleApp_TransID & 0xff
   \   000010   75....       MOV     ?V0 + 1,#(SampleApp_TransID >> 8) & 0xff
   \   000013   78..         MOV     R0,#?V0 + 0
   \   000015   12....       LCALL   ?PUSH_XSTACK_I_TWO
   \   000018   75....       MOV     ?V0 + 0,#SampleAppPeriodicCounter & 0xff
   \   00001B   75....       MOV     ?V0 + 1,#(SampleAppPeriodicCounter >> 8) & 0xff
   \   00001E   78..         MOV     R0,#?V0 + 0
   \   000020   12....       LCALL   ?PUSH_XSTACK_I_TWO
   \   000023   75..01       MOV     ?V0 + 0,#0x1
   \   000026   75..00       MOV     ?V0 + 1,#0x0
   \   000029   78..         MOV     R0,#?V0 + 0
   \   00002B   12....       LCALL   ?PUSH_XSTACK_I_TWO
   \   00002E   78..         MOV     R0,#?V0 + 0
   \   000030   12....       LCALL   ?PUSH_XSTACK_I_TWO
   \   000033   7920         MOV     R1,#0x20
   \   000035   7C..         MOV     R4,#SampleApp_epDesc & 0xff
   \   000037   7D..         MOV     R5,#(SampleApp_epDesc >> 8) & 0xff
   \   000039   7A..         MOV     R2,#SampleApp_Periodic_DstAddr & 0xff
   \   00003B   7B..         MOV     R3,#(SampleApp_Periodic_DstAddr >> 8) & 0xff
   \   00003D   12....       LCALL   ??AF_DataRequest?relay
   \   000040   7409         MOV     A,#0x9
   \   000042                REQUIRE ?Subroutine0
   \   000042                ; // Fall through to label ?Subroutine0
    425            {
    426            }
    427            else
    428            {
    429              // Error occurred in request to send.
    430            }
    431          }

   \                                 In  segment BANKED_CODE, align 1, keep-with-next
   \                     ?Subroutine0:
   \   000000   12....       LCALL   ?DEALLOC_XSTACK8
   \   000003                REQUIRE ??Subroutine2_0
   \   000003                ; // Fall through to label ??Subroutine2_0
    432          
    433          /*********************************************************************
    434           * @fn      SampleApp_SendFlashMessage
    435           *
    436           * @brief   Send the flash message to group 1.
    437           *
    438           * @param   flashTime - in milliseconds
    439           *
    440           * @return  none
    441           */

   \                                 In  segment BANKED_CODE, align 1, keep-with-next
    442          void SampleApp_SendFlashMessage( uint16 flashTime )
   \                     SampleApp_SendFlashMessage:
    443          {
   \   000000   74F6         MOV     A,#-0xa
   \   000002   12....       LCALL   ?BANKED_ENTER_XDATA
   \   000005                ; Saved register size: 10
   \   000005                ; Auto size: 3
   \   000005   74FD         MOV     A,#-0x3
   \   000007   12....       LCALL   ?ALLOC_XSTACK8
    444            uint8 buffer[3];
    445            buffer[0] = (uint8)(SampleAppFlashCounter++);
   \   00000A   90....       MOV     DPTR,#SampleAppFlashCounter
   \   00000D   E0           MOVX    A,@DPTR
   \   00000E   85..82       MOV     DPL,?XSP + 0
   \   000011   85..83       MOV     DPH,?XSP + 1
   \   000014   F0           MOVX    @DPTR,A
   \   000015   90....       MOV     DPTR,#SampleAppFlashCounter
   \   000018   E0           MOVX    A,@DPTR
   \   000019   04           INC     A
   \   00001A   F0           MOVX    @DPTR,A
    446            buffer[1] = LO_UINT16( flashTime );
   \   00001B   7401         MOV     A,#0x1
   \   00001D   12....       LCALL   ?XSTACK_DISP0_8
   \   000020   EA           MOV     A,R2
   \   000021   F0           MOVX    @DPTR,A
    447            buffer[2] = HI_UINT16( flashTime );
   \   000022   7402         MOV     A,#0x2
   \   000024   12....       LCALL   ?XSTACK_DISP0_8
   \   000027   EB           MOV     A,R3
   \   000028   F0           MOVX    @DPTR,A
    448          
    449            if ( AF_DataRequest( &SampleApp_Flash_DstAddr, &SampleApp_epDesc,
    450                                 SAMPLEAPP_FLASH_CLUSTERID,
    451                                 3,
    452                                 buffer,
    453                                 &SampleApp_TransID,
    454                                 AF_DISCV_ROUTE,
    455                                 AF_DEFAULT_RADIUS ) == afStatus_SUCCESS )
   \   000029                ; Setup parameters for call to function AF_DataRequest
   \   000029   75..1E       MOV     ?V0 + 0,#0x1e
   \   00002C   78..         MOV     R0,#?V0 + 0
   \   00002E   12....       LCALL   ?PUSH_XSTACK_I_ONE
   \   000031   75....       MOV     ?V0 + 0,#SampleApp_TransID & 0xff
   \   000034   75....       MOV     ?V0 + 1,#(SampleApp_TransID >> 8) & 0xff
   \   000037   78..         MOV     R0,#?V0 + 0
   \   000039   12....       LCALL   ?PUSH_XSTACK_I_TWO
   \   00003C   7403         MOV     A,#0x3
   \   00003E   12....       LCALL   ?XSTACK_DISP0_8
   \   000041   8582..       MOV     ?V0 + 0,DPL
   \   000044   8583..       MOV     ?V0 + 1,DPH
   \   000047   78..         MOV     R0,#?V0 + 0
   \   000049   12....       LCALL   ?PUSH_XSTACK_I_TWO
   \   00004C   75..03       MOV     ?V0 + 0,#0x3
   \   00004F   75..00       MOV     ?V0 + 1,#0x0
   \   000052   78..         MOV     R0,#?V0 + 0
   \   000054   12....       LCALL   ?PUSH_XSTACK_I_TWO
   \   000057   75..02       MOV     ?V0 + 0,#0x2
   \   00005A   78..         MOV     R0,#?V0 + 0
   \   00005C   12....       LCALL   ?PUSH_XSTACK_I_TWO
   \   00005F   7920         MOV     R1,#0x20
   \   000061   7C..         MOV     R4,#SampleApp_epDesc & 0xff
   \   000063   7D..         MOV     R5,#(SampleApp_epDesc >> 8) & 0xff
   \   000065   7A..         MOV     R2,#SampleApp_Flash_DstAddr & 0xff
   \   000067   7B..         MOV     R3,#(SampleApp_Flash_DstAddr >> 8) & 0xff
   \   000069   12....       LCALL   ??AF_DataRequest?relay
   \   00006C   7409         MOV     A,#0x9
   \   00006E   12....       LCALL   ?DEALLOC_XSTACK8
    456            {
    457            }
    458            else
    459            {
    460              // Error occurred in request to send.
    461            }
    462          }
   \   000071   7403         MOV     A,#0x3
   \   000073   80..         SJMP    ?Subroutine0

   \                                 In  segment XDATA_ID, align 1, keep-with-next
   \                     `?<Initializer for seg7table>`:
   \   000000   C0           DB 192
   \   000001   F9           DB 249
   \   000002   A4           DB 164
   \   000003   B0           DB 176
   \   000004   99           DB 153
   \   000005   92           DB 146
   \   000006   82           DB 130
   \   000007   F8           DB 248
   \   000008   80           DB 128
   \   000009   90           DB 144
   \   00000A   88           DB 136
   \   00000B   83           DB 131
   \   00000C   C6           DB 198
   \   00000D   A1           DB 161
   \   00000E   86           DB 134
   \   00000F   8E           DB 142

   \                                 In  segment BANK_RELAYS, align 1
   \                     ??SampleApp_Init?relay:
   \   000000   12....       LCALL   ?BDISPATCH
   \   000003   ......       DC24    SampleApp_Init

   \                                 In  segment BANK_RELAYS, align 1
   \                     ??SampleApp_ProcessEvent?relay:
   \   000000   12....       LCALL   ?BDISPATCH
   \   000003   ......       DC24    SampleApp_ProcessEvent

   \                                 In  segment BANK_RELAYS, align 1
   \                     ??SampleApp_HandleKeys?relay:
   \   000000   12....       LCALL   ?BDISPATCH
   \   000003   ......       DC24    SampleApp_HandleKeys

   \                                 In  segment BANK_RELAYS, align 1
   \                     ??SampleApp_MessageMSGCB?relay:
   \   000000   12....       LCALL   ?BDISPATCH
   \   000003   ......       DC24    SampleApp_MessageMSGCB

   \                                 In  segment BANK_RELAYS, align 1
   \                     ??SampleApp_SendPeriodicMessage?relay:
   \   000000   12....       LCALL   ?BDISPATCH
   \   000003   ......       DC24    SampleApp_SendPeriodicMessage

   \                                 In  segment BANK_RELAYS, align 1
   \                     ??SampleApp_SendFlashMessage?relay:
   \   000000   12....       LCALL   ?BDISPATCH
   \   000003   ......       DC24    SampleApp_SendFlashMessage

   \                                 In  segment XDATA_ROM_C, align 1
   \                     `?<Constant "Group 1">`:
   \   000000   47726F75     DB "Group 1"
   \            70203100

   \                                 In  segment XDATA_ROM_C, align 1
   \                     `?<Constant "SampleApp">`:
   \   000000   53616D70     DB "SampleApp"
   \            6C654170
   \            7000    

   Maximum stack usage in bytes:

     Function                       ISTACK PSTACK XSTACK
     --------                       ------ ------ ------
     SampleApp_HandleKeys               0      0     22
       -> SampleApp_SendFlashMessage
                                        0      0     20
       -> aps_FindGroup                 0      0     20
       -> aps_RemoveGroup               0      0     20
       -> aps_AddGroup                  0      0     20
       -> HalLedSet                     0      0     20
       -> HalLedBlink                   0      0     20
       -> HalLedSet                     0      0     20
       -> HalLedBlink                   0      0     20
     SampleApp_Init                     0      0     14
       -> afRegister                    0      0     22
       -> RegisterForKeys               0      0     22
       -> osal_memcpy                   0      0     28
       -> aps_AddGroup                  0      0     22
       -> HalLcdWriteString             0      0     22
     SampleApp_MessageMSGCB             0      0      0
     SampleApp_ProcessEvent             0      0     12
       -> osal_msg_receive              0      0     24
       -> osal_msg_deallocate           0      0     24
       -> osal_msg_receive              0      0     24
       -> SampleApp_HandleKeys          0      0     24
       -> SampleApp_SendPeriodicMessage
                                        0      0     24
       -> osal_rand                     0      0     24
       -> osal_start_timerEx            0      0     24
     SampleApp_SendFlashMessage         1      0     32
       -> AF_DataRequest                0      0     44
     SampleApp_SendPeriodicMessage      0      0     31
       -> AF_DataRequest                0      0     38


   Segment part sizes:

     Function/Label                        Bytes
     --------------                        -----
     _A_P0                                    1
     _A_P1                                    1
     P0DIR                                    1
     P1DIR                                    1
     SampleApp_ClusterList                    4
     SampleApp_SimpleDesc                    12
     SampleApp_epDesc                         6
     SampleApp_TaskID                         1
     SampleApp_NwkState                       1
     SampleApp_TransID                        1
     SampleApp_Periodic_DstAddr              12
     SampleApp_Flash_DstAddr                 12
     SampleApp_Group                         18
     SampleAppPeriodicCounter                 1
     SampleAppFlashCounter                    1
     SampleApp_Init                         159
     SampleApp_ProcessEvent                 138
     SampleApp_HandleKeys                   138
     ?Subroutine1                            12
     ??Subroutine2_0                          5
     keynumber                                1
     seg7table                               16
     SampleApp_MessageMSGCB                   3
     SampleApp_SendPeriodicMessage           66
     ?Subroutine0                             3
     SampleApp_SendFlashMessage             117
     ?<Initializer for seg7table>            16
     ??SampleApp_Init?relay                   6
     ??SampleApp_ProcessEvent?relay           6
     ??SampleApp_HandleKeys?relay             6
     ??SampleApp_MessageMSGCB?relay           6
     ??SampleApp_SendPeriodicMessage?relay    6
     ??SampleApp_SendFlashMessage?relay       6
     ?<Constant "Group 1">                    8
     ?<Constant "SampleApp">                 10

 
 641 bytes in segment BANKED_CODE
  36 bytes in segment BANK_RELAYS
   4 bytes in segment SFR_AN
  16 bytes in segment XDATA_I
  16 bytes in segment XDATA_ID
  34 bytes in segment XDATA_ROM_C
  54 bytes in segment XDATA_Z
 
 693 bytes of CODE  memory
  34 bytes of CONST memory
   0 bytes of DATA  memory (+ 4 bytes shared)
  70 bytes of XDATA memory

Errors: none
Warnings: 1
